((dp0
S'arm_dbg_args'
p1
S'-via:"c:\\Users\\ironwk\\Documents\\blackberry\\juego\\agentBaconLalo - V1.3(ariel)\\build_agent_vc10\\Agent_vc10_arm_debug.via" -qemu'
p2
sS'game-icf'
p3
S''
p4
sS'dist'
p5
NsS'module_path_append'
p6
NsS'global_path'
p7
S'c:\\users\\ironwk\\documents\\blackberry\\juego'
p8
sS'system_path'
p9
S'c:\\marmalade\\6.2\\s3e\\makefile_builder'
p10
sS'use_prebuilt'
p11
NsS'arm_rel_rtsm_args'
p12
S'-via:"c:\\Users\\ironwk\\Documents\\blackberry\\juego\\agentBaconLalo - V1.3(ariel)\\build_agent_vc10\\Agent_vc10_arm_release.via" -qemu'
p13
sS'amd64'
p14
NsS'debug'
p15
NsS'line-width'
p16
I80
sS'gcc_dbg_args'
p17
S'-via:"c:\\Users\\ironwk\\Documents\\blackberry\\juego\\agentBaconLalo - V1.3(ariel)\\build_agent_vc10\\Agent_vc10_gcc_debug.via" -qemu'
p18
sS'x86_dbg_exe'
p19
S'c:/marmalade/6.2/s3e\\win32\\s3e_simulator_debug.exe'
p20
sS'disable-runtime-checks'
p21
NsS'no-make'
p22
NsS'optimise-size'
p23
NsS'output-name-debug'
p24
g4
sS'arm-fpu'
p25
S'vfp'
p26
sS'psp'
p27
NsS'proj_name'
p28
S'Agent_vc10'
p29
sS'rvct-version'
p30
S'none'
p31
sS'compiler'
p32
g4
sS'execute'
p33
NsS'compile-static'
p34
NsS'msvc-project'
p35
I01
sS'buildenv'
p36
g4
sS'release'
p37
NsS'module_path'
p38
NsS'use-release-std-libs'
p39
NsS'using_perforce'
p40
I00
sS'mips-s3e'
p41
NsS'shared-arm-lib'
p42
NsS'arm-cpu'
p43
g4
sS'compile-thumb'
p44
NsS'no-ide'
p45
NsS'msvc-version'
p46
S'6.0'
p47
sS'arm'
p48
NsS'builddir'
p49
g4
sS'compile-debug-as-release'
p50
I0
sS'brief'
p51
NsS'dll'
p52
NsS'version'
p53
NsS'ccache'
p54
I0
sS'offline'
p55
NsS'ios-version'
p56
g4
sS'jobs'
p57
I0
sS'linkflags'
p58
NsS'quick'
p59
NsS'gcc_rel_rtsm_args'
p60
S'-via:"c:\\Users\\ironwk\\Documents\\blackberry\\juego\\agentBaconLalo - V1.3(ariel)\\build_agent_vc10\\Agent_vc10_gcc_release.via" -qemu'
p61
sS'done_defaults'
p62
I1
sS'path'
p63
NsS's3e-data-dir'
p64
S'c:/Users/ironwk/Documents/blackberry/juego/agentBaconLalo - V1.3(ariel)\\data'
p65
sS'enable-exceptions'
p66
NsS'osx-dll'
p67
NsS'extension'
p68
g4
sS'no-vc6'
p69
NsS'non-interactive'
p70
NsS'win32-console'
p71
NsS'nds'
p72
NsS'dist-format'
p73
g4
sS's3e-force-arch'
p74
NsS'dump_defines'
p75
NsS'verbose'
p76
I0
sS'psp-minis'
p77
NsS'gcc-version'
p78
g4
sS'x86_dbg_args'
p79
S'-via:"c:\\Users\\ironwk\\Documents\\blackberry\\juego\\agentBaconLalo - V1.3(ariel)\\build_agent_vc10\\Agent_vc10_debug.via"'
p80
sS'arm-debugger'
p81
g4
sS'use_temp_extension'
p82
NsS'log'
p83
NsS'no-strip'
p84
NsS'rebuild'
p85
NsS'win32-simulator-dll'
p86
NsS'strict'
p87
NsS'mips_dbg_args'
p88
S'../../tools/DeployTool/DeployTool.exe --dir "c:\\Users\\ironwk\\Documents\\blackberry\\juego\\agentBaconLalo - V1.3(ariel)\\build_agent_vc10"'
p89
sS'enable-global-path'
p90
NsS'iphone'
p91
NsS'cflags'
p92
NsS'dist-dir'
p93
g4
sS'jflags'
p94
NsS'distcc'
p95
NsS'external-compiler'
p96
NsS'no-distcc'
p97
NsS'preinclude'
p98
NsS'using_sdk'
p99
I01
sS'nologo'
p100
NsS'warn-level'
p101
I2
sS'mips_dbg_exe'
p102
S'c:\\marmalade\\6.2\\s3e\\makefile_builder\\tool_launcher.exe'
p103
sS'mkb_in'
p104
S'c:/Users/ironwk/Documents/blackberry/juego/agentBaconLalo - V1.3(ariel)/Agent.mkb'
p105
sS'arm_dbg_exe'
p106
S'c:/marmalade/6.2/s3e\\bin\\armdebug.exe'
p107
sS'list-targets'
p108
NsS'arm_rel_exe'
p109
g103
sS'arm_rel_args'
p110
g89
sS'makedeps'
p111
NsS'default-buildenv'
p112
S'vc10'
p113
sS'x86_rel_exe'
p114
g20
sS'preprocess-java'
p115
NsS'mips_rel_args'
p116
g89
sS'defines'
p117
NsS'lib'
p118
NsS'global_argv'
p119
(lp120
S'C:\\Marmalade\\6.2\\s3e\\makefile_builder\\mkb.py'
p121
aS'c:/Users/ironwk/Documents/blackberry/juego/agentBaconLalo - V1.3(ariel)/Agent.mkb'
p122
aS'--default-buildenv=vc10'
p123
aS'--msvc-project'
p124
asS'make'
p125
NsS'optimise-speed'
p126
NsS'internal'
p127
NsS'enable-stdinc'
p128
NsS'deploy-only'
p129
NsS'x86'
p130
NsS'deploy'
p131
g4
sS'x86_run_exe'
p132
S'c:/marmalade/6.2/s3e\\win32\\s3e_console.exe'
p133
sS'x86_rel_args'
p134
S'-via:"c:\\Users\\ironwk\\Documents\\blackberry\\juego\\agentBaconLalo - V1.3(ariel)\\build_agent_vc10\\Agent_vc10_release.via"'
p135
sS'gcc_rel_args'
p136
g89
sS'mips'
p137
NsS'incredibuild'
p138
NsS'strict-compile'
p139
NsS'use-auto-subdirs'
p140
NsS'mips_rel_exe'
p141
g103
sS'app-icf'
p142
g4
sS'deployargs'
p143
NsS'mkf_in'
p144
(lp145
S'c:\\marmalade\\6.2\\modules\\iwgx\\iwgx.mkf'
p146
aS'c:\\marmalade\\6.2\\modules\\iwgeom\\iwgeom.mkf'
p147
aS'c:\\marmalade\\6.2\\modules\\iwutil\\iwutil.mkf'
p148
aVc:\u005cusers\u005cironwk\u005cappdata\u005croaming\u005cmarmalade\u005cpackages\u005c6.2.0\u005clibjpeg_6b\u005clibjpeg.mkf
p149
aVc:\u005cusers\u005cironwk\u005cappdata\u005croaming\u005cmarmalade\u005cpackages\u005c6.2.0\u005clibpng_1.2.34\u005clibpng.mkf
p150
aVc:\u005cusers\u005cironwk\u005cappdata\u005croaming\u005cmarmalade\u005cpackages\u005c6.2.0\u005czlib_1.2.4\u005czlib.mkf
p151
aS'c:\\marmalade\\6.2\\modules\\iwresmanager\\iwresmanager.mkf'
p152
aS'c:\\marmalade\\6.2\\modules\\iwgl\\iwgl.mkf'
p153
aS'c:\\marmalade\\6.2\\modules\\iw2d\\iw2d.mkf'
p154
aS'c:\\marmalade\\6.2\\modules\\iwgxfont\\iwgxfont.mkf'
p155
aVc:\u005cusers\u005cironwk\u005cappdata\u005croaming\u005cmarmalade\u005cpackages\u005c6.2.0\u005ctiniconv_1.0.1\u005ctiniconv.mkf
p156
aS'c:\\users\\ironwk\\documents\\blackberry\\juego\\agentbaconlalo - v1.3(ariel)\\soundengine\\soundengine.mkf'
p157
asS'strict-mkb'
p158
NsS'executeargs'
p159
NsS'clean'
p160
NsS'no-asm'
p161
NsS'output-name'
p162
g4
sS'no-modules'
p163
NsS'find_define'
p164
g4
s(dp165
S'c:\\marmalade\\6.2\\s3e\\makefile_builder\\templates\\xcode_pbxuser.py'
p166
F1354107022.0
sS'c:\\marmalade\\6.2\\s3e\\makefile_builder\\templates'
p167
F1359412315.3590393
sS'c:\\marmalade\\6.2\\s3e\\makefile_builder\\plugins\\null.pyc'
p168
F1354118772.0
sS'c:\\marmalade\\6.2\\s3e\\makefile_builder\\plugins\\XcodeEmitter.pyc'
p169
F1359412713.7059648
sS'c:\\marmalade\\6.2\\s3e\\makefile_builder\\plugins'
p170
F1359412713.9981401
sS'c:\\marmalade\\6.2\\s3e\\makefile_builder\\extensions'
p171
F1359412315.3803477
sS'c:\\marmalade\\6.2\\s3e\\makefile_builder\\templates\\vc6_opt.pyc'
p172
F1354118772.0
sS'c:\\marmalade\\6.2\\s3e\\makefile_builder\\templates\\win32_vcxproj_filters.pyc'
p173
F1354118772.0
sS'c:\\marmalade\\6.2\\s3e\\makefile_builder\\mkb_parser.pyc'
p174
F1354118772.0
sS'c:\\marmalade\\6.2\\s3e\\makefile_builder\\plugins\\xcode4_schememanagement.pyc'
p175
F1359412713.7144244
sS'c:\\marmalade\\6.2\\s3e\\makefile_builder\\plugins\\win32_vc6.pyc'
p176
F1354118772.0
sS'c:\\marmalade\\6.2\\s3e\\makefile_builder\\templates\\template.suo'
p177
F1354107020.0
sS'c:\\marmalade\\6.2\\s3e\\makefile_builder\\plugins\\s3e_xcode.py'
p178
F1354107020.0
sS'c:\\marmalade\\6.2\\s3e\\makefile_builder\\templates\\make.py'
p179
F1354107020.0
sS'c:\\marmalade\\6.2\\s3e\\makefile_builder\\docs\\options.txt'
p180
F1354107020.0
sS'c:\\marmalade\\6.2\\s3e\\makefile_builder\\plugins\\linux_scons.pyc'
p181
F1354118772.0
sS'c:\\marmalade\\6.2\\s3e\\makefile_builder\\templates\\linker_script'
p182
F1354107020.0
sS'c:\\marmalade\\6.2\\s3e\\makefile_builder\\plugins\\s3e_scons.pyc'
p183
F1354118772.0
sS'c:\\marmalade\\6.2\\s3e\\makefile_builder\\templates\\xcode.py'
p184
F1354107022.0
sS'c:\\marmalade\\6.2\\s3e\\makefile_builder\\plugins\\java.pyc'
p185
F1354118772.0
sS'c:\\marmalade\\6.2\\s3e\\makefile_builder\\templates\\win32_dsw.pyc'
p186
F1354118772.0
sS'c:\\marmalade\\6.2\\s3e\\makefile_builder\\docs\\mkb.defines.txt'
p187
F1354107020.0
sS'c:\\marmalade\\6.2\\s3e\\makefile_builder\\docs\\deprecated.defines.txt'
p188
F1354107020.0
sS'c:\\marmalade\\6.2\\s3e\\makefile_builder\\templates\\win32_vcxproj.pyc'
p189
F1354118772.0
sS'c:\\marmalade\\6.2\\s3e\\makefile_builder\\deployment.pyc'
p190
F1354118772.0
sS'c:\\marmalade\\6.2\\s3e\\makefile_builder\\plugins\\s3e_qmake.py'
p191
F1354107020.0
sS'c:\\marmalade\\6.2\\s3e\\makefile_builder\\templates\\win32_sln.pyc'
p192
F1354118772.0
sS'c:\\marmalade\\6.2\\s3e\\makefile_builder\\tool_launcher.exe'
p193
F1354107924.0
sS'c:\\marmalade\\6.2\\s3e\\makefile_builder\\plugins\\Emitter.pyc'
p194
F1354118772.0
sS'c:\\marmalade\\6.2\\s3e\\makefile_builder\\docs\\deprecated.options.txt'
p195
F1354107020.0
sS'c:\\marmalade\\6.2\\s3e\\makefile_builder\\templates\\rvct_linker_script'
p196
F1354107020.0
sS'c:\\marmalade\\6.2\\s3e\\makefile_builder\\plugins\\vc6_utils.pyc'
p197
F1354118772.0
sS'c:\\marmalade\\6.2\\s3e\\makefile_builder\\mkb_main.pyc'
p198
F1354118772.0
sS'c:\\marmalade\\6.2\\s3e\\makefile_builder\\plugins\\iphone.pyc'
p199
F1354118772.0
sS'c:\\marmalade\\6.2\\s3e\\makefile_builder\\plugins\\S3EEmitter.pyc'
p200
F1354118772.0
sS'c:\\marmalade\\6.2\\s3e\\makefile_builder\\plugins\\xcode4_schememanagement.py'
p201
F1354107020.0
sS'c:\\marmalade\\6.2\\s3e\\makefile_builder\\templates\\xcode4_DeployTool.xcscheme'
p202
F1354107022.0
sS'c:\\marmalade\\6.2\\s3e\\makefile_builder\\mkb_util.pyc'
p203
F1354118772.0
sS'c:\\marmalade\\6.2\\s3e\\makefile_builder\\mkb_globals.pyc'
p204
F1354118772.0
sS'c:\\marmalade\\6.2\\s3e\\makefile_builder\\templates\\qmake_user.py'
p205
F1354107020.0
sS'c:\\marmalade\\6.2\\s3e\\makefile_builder\\plugins\\vc7_utils.pyc'
p206
F1354118772.0
sS'c:\\marmalade\\6.2\\s3e\\makefile_builder\\templates\\MainWindow.xib'
p207
F1354107020.0
sS'c:\\marmalade\\6.2\\s3e\\makefile_builder\\plugins\\s3e_make.pyc'
p208
F1354118772.0
sS'c:\\marmalade\\6.2\\s3e\\makefile_builder\\templates\\vc10_user.pyc'
p209
F1354118772.0
sS'c:\\marmalade\\6.2\\s3e\\makefile_builder\\templates\\Info.plist'
p210
F1354107020.0
sS'c:\\marmalade\\6.2\\s3e\\makefile_builder\\plugins\\SConsEmitter.pyc'
p211
F1354118772.0
sS'c:\\marmalade\\6.2\\s3e\\makefile_builder\\docs'
p212
F1359412315.4572871
sS'c:\\marmalade\\6.2\\s3e\\makefile_builder\\mkb_option.pyc'
p213
F1354118772.0
sS'c:\\marmalade\\6.2\\s3e\\makefile_builder\\docs\\parse_options.pyc'
p214
F1354118772.0
sS'c:\\marmalade\\6.2\\s3e\\makefile_builder\\plugins\\XcodeEmitter.py'
p215
F1354107020.0
sS'c:\\marmalade\\6.2\\s3e\\makefile_builder\\mkb_launcher.exe'
p216
F1354107922.0
sS'c:\\marmalade\\6.2\\s3e\\makefile_builder\\templates\\vc8_user.pyc'
p217
F1354118772.0
sS'c:\\marmalade\\6.2\\s3e\\makefile_builder\\templates\\win32_dsp.pyc'
p218
F1354118772.0
sS'c:\\marmalade\\6.2\\s3e\\makefile_builder\\templates\\mips_linker_script'
p219
F1354107020.0
sS'c:\\marmalade\\6.2\\s3e\\makefile_builder\\mkb.py'
p220
F1354107020.0
sS'c:\\marmalade\\6.2\\s3e\\makefile_builder\\plugins\\osx_scons.pyc'
p221
F1354118772.0
sS'c:\\marmalade\\6.2\\s3e\\makefile_builder\\plugins\\deploy.pyc'
p222
F1354118772.0
sS'c:\\marmalade\\6.2\\s3e\\makefile_builder\\plugins\\VisualStudioEmitter.pyc'
p223
F1354118772.0
sS'c:\\marmalade\\6.2\\s3e\\makefile_builder\\plugins\\s3e_qmake.pyc'
p224
F1359412713.9551115
sS'c:\\marmalade\\6.2\\s3e\\makefile_builder\\plugins\\s3e_xcode.pyc'
p225
F1359412714.0161519
sS'c:\\marmalade\\6.2\\s3e\\makefile_builder\\docs\\deployment_options.txt'
p226
F1354107020.0
sS'c:\\marmalade\\6.2\\s3e\\makefile_builder\\plugins\\s3e_web.pyc'
p227
F1354118772.0
sS'c:\\marmalade\\6.2\\s3e\\makefile_builder\\templates\\template.opt'
p228
F1354107020.0
sS'c:\\marmalade\\6.2\\s3e\\makefile_builder\\templates\\scons.pyc'
p229
F1354118772.0
sS'c:\\marmalade\\6.2\\s3e\\makefile_builder\\templates\\xcode4.xcscheme'
p230
F1354107022.0
sS'c:\\marmalade\\6.2\\s3e\\makefile_builder\\templates\\vc7_suo.pyc'
p231
F1354118772.0
sS'c:\\marmalade\\6.2\\s3e\\makefile_builder\\plugins\\MakeEmitter.pyc'
p232
F1354118772.0
sS'c:\\marmalade\\6.2\\s3e\\makefile_builder\\templates\\qmake.py'
p233
F1354107020.0
sS'c:\\marmalade\\6.2\\s3e\\makefile_builder\\templates\\win32_vcproj.pyc'
p234
F1354118772.0
sS'c:\\marmalade\\6.2\\s3e\\makefile_builder\\templates\\gdb_start.txt'
p235
F1354107020.0
sS'c:\\marmalade\\6.2\\s3e\\makefile_builder\\plugins\\s3e_vc6.pyc'
p236
F1354118772.0
sS'c:\\marmalade\\6.2\\s3e\\makefile_builder\\plugins\\osx_xcode.pyc'
p237
F1354118772.0
sS'c:\\marmalade\\6.2\\s3e\\makefile_builder\\extensions\\make_dist.py'
p238
F1354107020.0
sccopy_reg
_reconstructor
p239
(cmkb_main
MkbFile
p240
c__builtin__
object
p241
Ntp242
Rp243
(dp244
g5
(lp245
sS'target_name'
p246
S'Agent'
p247
sS'current_file'
p248
g105
sS'package_path'
p249
(lp250
VC:\u005cUsers\u005cironwk\u005cAppData\u005cRoaming\u005cMarmalade\u005cpackages\u005c6.2.0\u005clibjpeg_6b
p251
aVC:\u005cUsers\u005cironwk\u005cAppData\u005cRoaming\u005cMarmalade\u005cpackages\u005c6.2.0\u005clibpng_1.2.34
p252
aVC:\u005cUsers\u005cironwk\u005cAppData\u005cRoaming\u005cMarmalade\u005cpackages\u005c6.2.0\u005czlib_1.2.4
p253
aVC:\u005cUsers\u005cironwk\u005cAppData\u005cRoaming\u005cMarmalade\u005cpackages\u005c6.2.0\u005ctiniconv_1.0.1
p254
asS'post_build'
p255
(lp256
(lp257
S'c:/marmalade/6.2/s3e/tools'
p258
aS'C:\\Marmalade\\6.2\\s3e\\python\\python.exe .\\process_map.py "$(TargetPath)"'
p259
aa(S'c:\\marmalade\\6.2\\s3e'
p260
S'"c:\\marmalade\\6.2\\s3e\\bin\\s3e_plink" -l "$(TargetPath)"'
p261
g130
tp262
asS'librarys'
p263
(lp264
g239
(cmkb_main
Library
p265
g241
Ntp266
Rp267
(dp268
S'name'
p269
S'vc6_compat.lib'
p270
sS'expand_name'
p271
I00
sS'include_spec_rvct_objs'
p272
(lp273
sS'include_all_objs'
p274
I00
sS'share_arm'
p275
I00
sS'arch'
p276
S'x86'
p277
sS'nodebug'
p278
I00
sg32
Nsbag239
(g265
g241
Ntp279
Rp280
(dp281
g269
S'jpeg'
p282
sg271
I01
sg272
(lp283
sg274
I00
sg275
Nsg276
Nsg278
I00
sg32
Nsbag239
(g265
g241
Ntp284
Rp285
(dp286
g269
S'z'
p287
sg271
I01
sg272
g283
sg274
I00
sg275
Nsg276
Nsg278
I00
sg32
Nsbag239
(g265
g241
Ntp288
Rp289
(dp290
g269
S'png'
p291
sg271
I01
sg272
g283
sg274
I00
sg275
Nsg276
Nsg278
I00
sg32
Nsbag239
(g265
g241
Ntp292
Rp293
(dp294
g269
S'iwutil'
p295
sg271
I01
sg272
g283
sg274
I00
sg275
I01
sg276
Nsg278
I00
sg32
Nsbag239
(g265
g241
Ntp296
Rp297
(dp298
g269
S'iwgeom'
p299
sg271
I01
sg272
g283
sg274
I00
sg275
I01
sg276
Nsg278
I00
sg32
Nsbag239
(g265
g241
Ntp300
Rp301
(dp302
g269
S'iwresmanager'
p303
sg271
I01
sg272
g283
sg274
I00
sg275
I01
sg276
Nsg278
I00
sg32
Nsbag239
(g265
g241
Ntp304
Rp305
(dp306
g269
S'ATI_Compress_MT_VC7.lib'
p307
sg271
I00
sg272
g283
sg274
I00
sg275
Nsg276
S'x86'
p308
sg278
I00
sg32
Nsbag239
(g265
g241
Ntp309
Rp310
(dp311
g269
S'iwgx'
p312
sg271
I01
sg272
g283
sg274
I00
sg275
I01
sg276
Nsg278
I00
sg32
Nsbag239
(g265
g241
Ntp313
Rp314
(dp315
g269
S'iwgl'
p316
sg271
I01
sg272
g283
sg274
I00
sg275
Nsg276
Nsg278
I00
sg32
Nsbag239
(g265
g241
Ntp317
Rp318
(dp319
g269
S'iwgxfont'
p320
sg271
I01
sg272
g283
sg274
I00
sg275
I01
sg276
Nsg278
I00
sg32
Nsbag239
(g265
g241
Ntp321
Rp322
(dp323
g269
S'tiniconv'
p324
sg271
I01
sg272
g283
sg274
I00
sg275
Nsg276
Nsg278
I00
sg32
Nsbag239
(g265
g241
Ntp325
Rp326
(dp327
g269
S'iw2d'
p328
sg271
I01
sg272
g283
sg274
I00
sg275
I01
sg276
Nsg278
I00
sg32
Nsbag239
(g265
g241
Ntp329
Rp330
(dp331
g269
S's3e_cpp'
p332
sg271
I01
sg272
g273
sg274
I00
sg275
I00
sg276
Nsg278
I00
sg32
Nsbag239
(g265
g241
Ntp333
Rp334
(dp335
g269
S's3e'
p336
sg271
I01
sg272
(lp337
S'iwcrt.o'
p338
asg274
I00
sg275
I00
sg276
Nsg278
I00
sg32
Nsbag239
(g265
g241
Ntp339
Rp340
(dp341
g269
S's3e_api'
p342
sg271
I01
sg272
g273
sg274
I00
sg275
I00
sg276
Nsg278
I1
sg32
Nsbag239
(g265
g241
Ntp343
Rp344
(dp345
g269
S's3e_api'
p346
sg271
I00
sg272
g273
sg274
I00
sg275
I00
sg276
S'arm'
p347
sg278
I00
sg32
S'gcc'
p348
sbag239
(g265
g241
Ntp349
Rp350
(dp351
g269
S'stdc++'
p352
sg271
I00
sg272
g273
sg274
I00
sg275
I00
sg276
S'mips'
p353
sg278
I00
sg32
Nsbag239
(g265
g241
Ntp354
Rp355
(dp356
g269
S'c'
p357
sg271
I00
sg272
g273
sg274
I00
sg275
I00
sg276
S'mips'
p358
sg278
I00
sg32
Nsbag239
(g265
g241
Ntp359
Rp360
(dp361
g269
S'm'
p362
sg271
I00
sg272
g273
sg274
I00
sg275
I00
sg276
S'mips'
p363
sg278
I00
sg32
Nsbag239
(g265
g241
Ntp364
Rp365
(dp366
g269
S'gcc'
p367
sg271
I00
sg272
g273
sg274
I00
sg275
I00
sg276
S'mips'
p368
sg278
I00
sg32
NsbasS'library_paths'
p369
(lp370
g239
(cmkb_main
LibraryPath
p371
g241
Ntp372
Rp373
(dp374
S'expand_path'
p375
I01
sS'add_cpu_variant'
p376
I00
sg269
Vc:/users/ironwk/appdata/roaming/marmalade/packages/6.2.0/libjpeg_6b
p377
sbag239
(g371
g241
Ntp378
Rp379
(dp380
g375
I01
sg376
I00
sg269
Vc:/users/ironwk/appdata/roaming/marmalade/packages/6.2.0/zlib_1.2.4
p381
sbag239
(g371
g241
Ntp382
Rp383
(dp384
g375
I01
sg376
I00
sg269
Vc:/users/ironwk/appdata/roaming/marmalade/packages/6.2.0/libpng_1.2.34
p385
sbag239
(g371
g241
Ntp386
Rp387
(dp388
g375
I01
sg376
I00
sg269
S'c:/marmalade/6.2/modules/iwutil'
p389
sbag239
(g371
g241
Ntp390
Rp391
(dp392
g375
I01
sg376
I00
sg269
S'c:/marmalade/6.2/modules/iwgeom'
p393
sbag239
(g371
g241
Ntp394
Rp395
(dp396
g375
I01
sg376
I00
sg269
S'c:/marmalade/6.2/modules/iwresmanager'
p397
sbag239
(g371
g241
Ntp398
Rp399
(dp400
g375
I00
sg376
I00
sg269
S'c:/marmalade/6.2/modules/iwgx/atitools'
p401
sbag239
(g371
g241
Ntp402
Rp403
(dp404
g375
I01
sg376
I00
sg269
S'c:/marmalade/6.2/modules/iwgx'
p405
sbag239
(g371
g241
Ntp406
Rp407
(dp408
g375
I01
sg376
I00
sg269
S'c:/marmalade/6.2/modules/iwgl'
p409
sbag239
(g371
g241
Ntp410
Rp411
(dp412
g375
I01
sg376
I00
sg269
S'c:/marmalade/6.2/modules/iwgxfont'
p413
sbag239
(g371
g241
Ntp414
Rp415
(dp416
g375
I01
sg376
I00
sg269
Vc:/users/ironwk/appdata/roaming/marmalade/packages/6.2.0/tiniconv_1.0.1
p417
sbag239
(g371
g241
Ntp418
Rp419
(dp420
g375
I01
sg376
I00
sg269
S'c:/marmalade/6.2/modules/iw2d'
p421
sbag239
(g371
g241
Ntp422
Rp423
(dp424
g375
I01
sg376
I00
sg269
S'c:/marmalade/6.2/s3e'
p425
sbasS'macros'
p426
(dp427
S'IW_USE_CALLSTACK'
p428
NsS'IW_SDK'
p429
NsS'I3D_PLATFORM_S3E'
p430
NsS'IW_MKF_LIBJPEG'
p431
NsS'I3D_OS_S3E'
p432
NsS'IW_MKF_TINICONV'
p433
NsS'IW_APP_VERSION'
p434
S'"1.0"'
p435
sS'IW_MKF_IWRESMANAGER'
p436
NsS'IW_MKF_IWUTIL'
p437
NsS'IW_MKF_IWGEOM'
p438
NsS'IW_ASSERTION_CHANNEL_2D'
p439
S'1'
p440
sS'IW_APP_NAME'
p441
S'"Agent"'
p442
sS'IW_MKF_IWGXFONT'
p443
NsS'IW_PLATFORM_S3E'
p444
NsS'IW_MKF_ZLIB'
p445
NsS'IW_MKF_IWGX'
p446
NsS'IW_MKF_SOUNDENGINE'
p447
NsS'IW_USE_ASSERTIONS'
p448
NsS'_CRT_SECURE_NO_DEPRECATE'
p449
NsS'IW_MKF_IWGL'
p450
NsS'IW_MKF_LIBPNG'
p451
NsS'IW_DEBUG'
p452
NsS'IW_USE_TRACING'
p453
NsS'S3E_INCLUDE_LEGACY'
p454
NsS'__S3E__'
p455
NsS'IW_MKF_IW2D'
p456
NssS'done_warnings'
p457
(dp458
sS'subprojects'
p459
(dp460
g152
S'iwresmanager'
p461
sVc:\u005cusers\u005cironwk\u005cappdata\u005croaming\u005cmarmalade\u005cpackages\u005c6.2.0\u005clibpng_1.2.34\u005clibpng.mkf
p462
S'libpng'
p463
sVc:\u005cusers\u005cironwk\u005cappdata\u005croaming\u005cmarmalade\u005cpackages\u005c6.2.0\u005clibjpeg_6b\u005clibjpeg.mkf
p464
S'libjpeg'
p465
sg148
S'iwutil'
p466
sg147
S'iwgeom'
p467
sg146
S'iwgx'
p468
sg157
S'SoundEngine'
p469
sVc:\u005cusers\u005cironwk\u005cappdata\u005croaming\u005cmarmalade\u005cpackages\u005c6.2.0\u005ctiniconv_1.0.1\u005ctiniconv.mkf
p470
S'tiniconv'
p471
sg155
S'iwgxfont'
p472
sg153
S'iwgl'
p473
sg154
S'iw2d'
p474
sVc:\u005cusers\u005cironwk\u005cappdata\u005croaming\u005cmarmalade\u005cpackages\u005c6.2.0\u005czlib_1.2.4\u005czlib.mkf
p475
S'zlib'
p476
ssS'deployments'
p477
(dp478
S'Default'
p479
g239
(cdeployment
Deployment
p480
g241
Ntp481
Rp482
(dp483
S'got_version'
p484
I1
sS'assets'
p485
g479
sS'mkb'
p486
g243
sS'target'
p487
Nsg276
(lp488
sS'options'
p489
(dp490
S'iphone-link-lib'
p491
(lp492
sS'game-icf'
p493
NsS'iphone-icon-high-res'
p494
NsS'win32-pref-windowposy'
p495
NsS'win32-pref-windowposx'
p496
NsS'bada-appsecret'
p497
NsS'playbook-author'
p498
NsS'winmobile-icon32'
p499
NsS'linux-ext-lib'
p500
(lp501
sS'target-folder'
p502
NsS'iphone-splashscreen-landscape'
p503
NsS'ngi-splashscreen-port'
p504
NsS'psp-discversion'
p505
NsS'lgtv-use-drm'
p506
NsS'nds-bannertitle-sp'
p507
NsS'symbian-platsecflags'
p508
NsS'psp-producer'
p509
NsS'blackberry-playbook-icon'
p510
NsS'iphone-icon-ipad-search-high-res'
p511
NsS'iphone-provisioning-profile'
p512
NsS'copyright'
p513
NsS'winmobile-png45'
p514
NsS'iphone-link-libdir'
p515
(lp516
sS'symbian-cert'
p517
NsS'nds-bannertitle-hn'
p518
NsS'brew-depends'
p519
NsS'winmobile-png60'
p520
NsS'winmobile-nouninstall'
p521
NsS'brew-mif'
p522
NsS'blackberry-phone-icon'
p523
S'c:/Users/ironwk/Documents/blackberry/juego/agentBaconLalo - V1.3(ariel)/data/logo2.jpg'
p524
sS'android-icon-hdpi'
p525
NsS'iphone-ipad-only'
p526
NsS'iphone-splash-full-orient'
p527
NsS'iphone-bundle-url-name'
p528
NsS'android-aliasname'
p529
NsS'iphone-splash-retina-generate'
p530
NsS'psp-dlgmanual'
p531
NsS'iphone-backgroundmode-audio'
p532
NsS'android-pkgname'
p533
NsS'webos-memory'
p534
NsS'brew-uid'
p535
NsS'android-keypass'
p536
NsS'ngi-uid'
p537
NsS'symbian-locationsupport'
p538
NsS'iphone-signing-host'
p539
NsS'ngi-install-sisx-only'
p540
NsS'nds-bannertitle-jp'
p541
NsS'name'
p542
S'AgentBacon'
p543
sS'symbian-run-on-install'
p544
NsS'osx-info-plist'
p545
NsS'symbian-icon1-format'
p546
NsS'uiq3-uid'
p547
NsS'psp-dlgcontentid'
p548
NsS'ngi-gcce-loader'
p549
NsS'auto-derbh'
p550
NsS'arch'
p551
NsS'bada-use-partner-privileges'
p552
NsS'nds-bannertitle-it'
p553
NsS'playbook-authorid'
p554
NsS'psp-copyright'
p555
NsS'ngi-achievements'
p556
NsS'splashscreen'
p557
NsS'symbian-soundrecordsupport'
p558
NsS'symbian-icon2-format'
p559
NsS'long-caption'
p560
NsS'iphone-icon-settings-high-res'
p561
NsS'android-manifest'
p562
NsS'ngi-splash-producer'
p563
NsS'winmobile-icon16'
p564
NsS's3e-compression'
p565
NsS'ngi-game-extras'
p566
NsS'winmobile-icon64'
p567
NsS'iphone-link-opts'
p568
(lp569
sS'iphone-region'
p570
NsS'uiq3-icon3-mask'
p571
NsS'winmobile-start-menu-folder'
p572
NsS'brew-clsid'
p573
NsS'brew-encoding'
p574
NsS'symbian-icon1'
p575
NsS'symbian-icon2'
p576
NsS'ngi-icon1'
p577
NsS'psp-parentallevel'
p578
NsS'ngi-icon3'
p579
NsS'ngi-icon2'
p580
NsS'ngi-icon4'
p581
NsS'osx-ext-dll'
p582
(lp583
sS'version'
p584
(lp585
I15
aI0
aI0
asS'bada-manifest'
p586
NsS'provider'
p587
NsS'iphone-prerendered-icon'
p588
NsS'iphone-appid'
p589
NsS'playbook-keystore'
p590
NsS'nds-initialcode'
p591
NsS'ngi-splashscreen-land'
p592
NsS'symbian-osexecsupport'
p593
NsS'blackberry-cskpass'
p594
S'm2h5hzmb'
p595
sS'iphone-persistent-wifi'
p596
NsS'symbian7-uid'
p597
NsS'winmobile-setup-dll'
p598
NsS'android-external-jars'
p599
(lp600
sS'android-install-location'
p601
NsS'olddeploytoolstyle'
p602
NsS'nds-privatesavedatasize'
p603
NsS'psp-snd0'
p604
NsS'nds-bannertitle-cn'
p605
NsS'winmobile-trace-file'
p606
NsS'playbook-storepass'
p607
NsS'ngi-no-assets'
p608
NsS'android-icon-ldpi'
p609
NsS'psp-appversion'
p610
NsS'networking'
p611
NsS'winmobile-install-folder'
p612
NsS'ngi-metadata'
p613
NsS'android-external-res'
p614
(lp615
sS'manufacturer'
p616
NsS'android-icon-gallery'
p617
NsS'bada-signed'
p618
NsS'nds-publicsavedatasize'
p619
NsS'iphone-apple-wwdr-cert'
p620
NsS'symbian9-uid'
p621
NsS'iphone-extra-sections'
p622
NsS'blackberry-keystore'
p623
S'C:/Users/ironwk/Local Settings/Application Data/Research In Motion/author.p12'
p624
sS'iphone-nosign'
p625
NsS'caption'
p626
S'Agent Bacon'
p627
sS'winmobile-ampd-part-number'
p628
NsS'iphone-icon-large'
p629
NsS'android-storepass'
p630
NsS'iphone-info-plist'
p631
NsS'ngi-arena-config'
p632
NsS'android-extra-manifest'
p633
(lp634
sS'iphone-icon-ipad-search'
p635
NsS'android-custom-activity'
p636
NsS'version-minor'
p637
NsS'iphone-icon-ipad'
p638
NsS'bada-appid'
p639
NsS'blackberry-authorid'
p640
S'gYAAgOqe5aNwTHsW31_f64VcFFQ'
p641
sS'iphone-distribution-key'
p642
NsS'iphone-link-libdirs'
p643
(lp644
sS'symbian-maxheapsize'
p645
NsS'embed-icf'
p646
NsS'psp-titlename'
p647
NsS'symbian-icon1-mask'
p648
NsS'nds-makercode'
p649
NsS'psp-icon1'
p650
NsS'priv-sign-key'
p651
NsS'webos-appinfo'
p652
NsS'symbian-cert-key'
p653
NsS'android-icon'
p654
NsS'webos-appid'
p655
NsS'android-icon-nonstandard'
p656
NsS'uiq3-icon2'
p657
NsS'iphone-icon-settings'
p658
NsS'ngi-gameinfo'
p659
NsS'iphone-distribution-cert'
p660
NsS'osx-icon'
p661
NsS'symbian-disable-ecompxl'
p662
NsS'splashscreen-auto-onblack'
p663
NsS'icon'
p664
S'c:/Users/ironwk/Documents/blackberry/juego/agentBaconLalo - V1.3(ariel)/data/logo2.jpg'
p665
sS'nds-romheadertemplate'
p666
NsS'webos-icon'
p667
NsS'ngi-arena-rss'
p668
NsS'nds-bannertitle-en'
p669
NsS'win32-ext-dll'
p670
(lp671
sS'psp-dlgicon0'
p672
NsS'iphone-development-key'
p673
NsS'psp-discid'
p674
NsS'winmobile-icon48'
p675
NsS'uiq3-icon1-mask'
p676
NsS'nds-titlename'
p677
NsS'android-so'
p678
(lp679
sS'android-supports-gl-texture'
p680
(lp681
sS'bada-splash'
p682
NsS'version-revision'
p683
NsS'android-icon-mdpi'
p684
NsS'android-keystore'
p685
NsS'uiq3-icon2-format'
p686
NsS'version-string'
p687
S'15.0'
p688
sS'winmobile-png90'
p689
NsS'iphone-icon-ipad-high-res'
p690
NsS'iphone-disable-ipad'
p691
NsS'uiq3-icon1-format'
p692
NsS'iphone-bundle-url-schemes'
p693
NsS'nds-icon'
p694
NsS'ngi-arena-locales'
p695
NsS'iphone-development-cert'
p696
NsS'ngi-filemanager-lib'
p697
NsS'android_extra_strings'
p698
NsS'playbook-icon'
p699
NsS'uid'
p700
NsS'playbook-cskpass'
p701
NsS'iphone-signing-identity'
p702
NsS'brew-icon-medium'
p703
NsS'ngi-key'
p704
NsS'android-extra-application-manifest'
p705
(lp706
sS'iphone-enable-4inch-retina'
p707
NsS'pkguid-as-uid'
p708
NsS'symbian-icon1-mask-black'
p709
NsS'pub-sign-key'
p710
NsS'nds-bannertitle-fr'
p711
NsS'win32-pref-windowtitle'
p712
NsS'symbian8-uid'
p713
NsS'splashscreen-use-all'
p714
NsS'android-unsigned'
p715
NsS'brew-priviledges'
p716
NsS'ngi-cert'
p717
NsS'brew-icon-small'
p718
NsS'psp-dlgpic2'
p719
NsS'bada-icon'
p720
NsS'psp-dlgpic0'
p721
NsS'lgtv_l9-use-drm'
p722
NsS'psp-pic0'
p723
NsS'psp-pic1'
p724
NsS'iphone-icon'
p725
NsS'psp-icon0'
p726
NsS'blackberry-permissions-access-shared'
p727
NsS'uiq3-icon3-format'
p728
NsS'version-major'
p729
NsS'iphone_bundle_localisations'
p730
NsS'winmobile-icon'
p731
NsS'blackberry-author'
p732
S'smap'
p733
sS'symbian-keypwd'
p734
NsS'iphone-no-splash'
p735
NsS'playbook-access-shared'
p736
NsS'psp-dlghealthwarning'
p737
NsS'iphone-link-libs'
p738
(lp739
sS'ngi-filemanager-dll'
p740
NsS'iphone-splash'
p741
NsS'nds-bannertitle-ge'
p742
NsS'android_icon_gallery'
p743
NsS'brew-icon-large'
p744
NsS'iphone-app-fonts'
p745
NsS'symbian-icon2-mask'
p746
NsS'iphone-sign-for-distribution'
p747
NsS'psp-dlgprotectdocument'
p748
NsS'winmobile-cab-compress'
p749
NsS'uiq3-icon3'
p750
NsS'uiq3-icon1'
p751
NsS'itunes-artwork'
p752
NsS'win32-icon'
p753
NsS'assets'
p754
NsS'symbian-key'
p755
NsS'app-icf'
p756
NsS'blackberry-storepass'
p757
S'M2H5hZmb'
p758
sS'ngi-arena-rsc'
p759
NsS'brew-compress-loader'
p760
NsS'uiq3-icon2-mask'
p761
NsS'symbian-icon2-mask-black'
p762
NsS'symbian-icon-svg'
p763
NsS'android-extra-strings'
p764
NsS'iphone-splashscreen-portrait'
p765
NsS'iphone-bundle-localisations'
p766
Nssg269
g479
sbssS'platform'
p767
S'S3E'
p768
sg53
S'1.0'
p769
sS'arcade_platform'
p770
g4
sS'extensions'
p771
(dp772
sS'source_groups_tree'
p773
(dp774
S'c:/Users/ironwk/Documents/blackberry/juego/agentBaconLalo - V1.3(ariel)/source/Splash.cpp'
p775
(lp776
I1
a(dp777
asS'(libpng)'
p778
(dp779
Vc:/users/ironwk/appdata/roaming/marmalade/packages/6.2.0/libpng_1.2.34/h/pngconf.h
p780
(lp781
I1
a(dp782
asVc:/users/ironwk/appdata/roaming/marmalade/packages/6.2.0/libpng_1.2.34/libpng.mkf
p783
(lp784
I1
a(dp785
asVc:/users/ironwk/appdata/roaming/marmalade/packages/6.2.0/libpng_1.2.34/h/png.h
p786
(lp787
I1
ag782
assS'(libjpeg)'
p788
(dp789
Vc:/users/ironwk/appdata/roaming/marmalade/packages/6.2.0/libjpeg_6b/h/jerror.h
p790
(lp791
I1
a(dp792
asVc:/users/ironwk/appdata/roaming/marmalade/packages/6.2.0/libjpeg_6b/h/jmorecfg.h
p793
(lp794
I1
ag792
asVc:/users/ironwk/appdata/roaming/marmalade/packages/6.2.0/libjpeg_6b/h/jinclude.h
p795
(lp796
I1
ag792
asVc:/users/ironwk/appdata/roaming/marmalade/packages/6.2.0/libjpeg_6b/h/transupp.h
p797
(lp798
I1
ag792
asVc:/users/ironwk/appdata/roaming/marmalade/packages/6.2.0/libjpeg_6b/h/cderror.h
p799
(lp800
I1
ag792
asVc:/users/ironwk/appdata/roaming/marmalade/packages/6.2.0/libjpeg_6b/h/jconfig.h
p801
(lp802
I1
ag792
asVc:/users/ironwk/appdata/roaming/marmalade/packages/6.2.0/libjpeg_6b/h/jpeglib.h
p803
(lp804
I1
ag792
asVc:/users/ironwk/appdata/roaming/marmalade/packages/6.2.0/libjpeg_6b/h/cdjpeg.h
p805
(lp806
I1
ag792
asVc:/users/ironwk/appdata/roaming/marmalade/packages/6.2.0/libjpeg_6b/libjpeg.mkf
p807
(lp808
I1
a(dp809
asVc:/users/ironwk/appdata/roaming/marmalade/packages/6.2.0/libjpeg_6b/h/jversion.h
p810
(lp811
I1
ag792
asVc:/users/ironwk/appdata/roaming/marmalade/packages/6.2.0/libjpeg_6b/h/jpegint.h
p812
(lp813
I1
ag792
asVc:/users/ironwk/appdata/roaming/marmalade/packages/6.2.0/libjpeg_6b/h/jmemsys.h
p814
(lp815
I1
ag792
asVc:/users/ironwk/appdata/roaming/marmalade/packages/6.2.0/libjpeg_6b/h/jchuff.h
p816
(lp817
I1
ag792
asVc:/users/ironwk/appdata/roaming/marmalade/packages/6.2.0/libjpeg_6b/h/jdct.h
p818
(lp819
I1
ag792
asVc:/users/ironwk/appdata/roaming/marmalade/packages/6.2.0/libjpeg_6b/h/jdhuff.h
p820
(lp821
I1
ag792
assS'(tiniconv)'
p822
(dp823
Vc:/users/ironwk/appdata/roaming/marmalade/packages/6.2.0/tiniconv_1.0.1/tiniconv.mkf
p824
(lp825
I1
a(dp826
asVc:/users/ironwk/appdata/roaming/marmalade/packages/6.2.0/tiniconv_1.0.1/h/tiniconv_int.h
p827
(lp828
I1
a(dp829
asVc:/users/ironwk/appdata/roaming/marmalade/packages/6.2.0/tiniconv_1.0.1/h/tiniconv.h
p830
(lp831
I1
ag829
assS'c:/Users/ironwk/Documents/blackberry/juego/agentBaconLalo - V1.3(ariel)/source/Coin.h'
p832
(lp833
I1
ag777
asS'c:/Users/ironwk/Documents/blackberry/juego/agentBaconLalo - V1.3(ariel)/source/corazones.h'
p834
(lp835
I1
ag777
asS'c:/Users/ironwk/Documents/blackberry/juego/agentBaconLalo - V1.3(ariel)/source/MiniCoin.h'
p836
(lp837
I1
ag777
asS'c:/Users/ironwk/Documents/blackberry/juego/agentBaconLalo - V1.3(ariel)/source/corazones.cpp'
p838
(lp839
I1
ag777
asS'c:/Users/ironwk/Documents/blackberry/juego/agentBaconLalo - V1.3(ariel)/source/Coin.cpp'
p840
(lp841
I1
ag777
asS'c:/Users/ironwk/Documents/blackberry/juego/agentBaconLalo - V1.3(ariel)/source/Input.h'
p842
(lp843
I1
ag777
asS'(zlib)'
p844
(dp845
Vc:/users/ironwk/appdata/roaming/marmalade/packages/6.2.0/zlib_1.2.4/h/zlib.h
p846
(lp847
I1
a(dp848
asVc:/users/ironwk/appdata/roaming/marmalade/packages/6.2.0/zlib_1.2.4/zlib.mkf
p849
(lp850
I1
a(dp851
asVc:/users/ironwk/appdata/roaming/marmalade/packages/6.2.0/zlib_1.2.4/h/zconf.h
p852
(lp853
I1
ag848
assS'c:/Users/ironwk/Documents/blackberry/juego/agentBaconLalo - V1.3(ariel)/source/Fondo.cpp'
p854
(lp855
I1
ag777
asS'c:/Users/ironwk/Documents/blackberry/juego/agentBaconLalo - V1.3(ariel)/source/main.h'
p856
(lp857
I1
ag777
asS'c:/Users/ironwk/Documents/blackberry/juego/agentBaconLalo - V1.3(ariel)/source/Tank.h'
p858
(lp859
I1
ag777
asS'c:/Users/ironwk/Documents/blackberry/juego/agentBaconLalo - V1.3(ariel)/source/Chuletas.h'
p860
(lp861
I1
ag777
asS'c:/Users/ironwk/Documents/blackberry/juego/agentBaconLalo - V1.3(ariel)/source/Menu.cpp'
p862
(lp863
I1
ag777
asS"'Marmalade Studio'"
p864
(dp865
S'iwgl'
p866
(dp867
S'c:/marmalade/6.2/modules/iwgl/h/IwGLExt.h'
p868
(lp869
I1
a(dp870
asS'c:/marmalade/6.2/modules/iwgl/docs/iwgl.config.txt'
p871
(lp872
I1
ag870
asS'c:/marmalade/6.2/modules/iwgl/h/IwGL.h'
p873
(lp874
I1
ag870
asS'c:/marmalade/6.2/modules/iwgl/iwgl.mkf'
p875
(lp876
I1
a(dp877
assS'iw2d'
p878
(dp879
S'c:/marmalade/6.2/modules/iw2d/h/Iw2D.h'
p880
(lp881
I1
a(dp882
asS'c:/marmalade/6.2/modules/iw2d/docs/iw2d_public.defines.txt'
p883
(lp884
I1
ag882
asS'c:/marmalade/6.2/modules/iw2d/docs/iw2d.config.txt'
p885
(lp886
I1
ag882
asS'c:/marmalade/6.2/modules/iw2d/iw2d.mkf'
p887
(lp888
I1
a(dp889
assS'iwgxfont'
p890
(dp891
S'c:/marmalade/6.2/modules/iwgxfont/docs/iwgxfont_public.defines.txt'
p892
(lp893
I1
a(dp894
asS'c:/marmalade/6.2/modules/iwgxfont/iwgxfont.mkf'
p895
(lp896
I1
a(dp897
asS'c:/marmalade/6.2/modules/iwgxfont/h/IwGxFontState.h'
p898
(lp899
I1
ag894
asS'c:/marmalade/6.2/modules/iwgxfont/h/IwGxFontGlyph.h'
p900
(lp901
I1
ag894
asS'c:/marmalade/6.2/modules/iwgxfont/h/IwGxFontPreparedData.h'
p902
(lp903
I1
ag894
asS'c:/marmalade/6.2/modules/iwgxfont/h/IwGxFontContainer.h'
p904
(lp905
I1
ag894
asS'c:/marmalade/6.2/modules/iwgxfont/h/IwGxFontTypes.h'
p906
(lp907
I1
ag894
asS'c:/marmalade/6.2/modules/iwgxfont/docs/iwgxfont.config.txt'
p908
(lp909
I1
ag894
asS'c:/marmalade/6.2/modules/iwgxfont/h/IwGxFont.h'
p910
(lp911
I1
ag894
assS'iwgeom'
p912
(dp913
S'c:/marmalade/6.2/modules/iwgeom/h/IwGeomMenu.h'
p914
(lp915
I1
a(dp916
asS'c:/marmalade/6.2/modules/iwgeom/h/IwGeomFVec3.h'
p917
(lp918
I1
ag916
asS'c:/marmalade/6.2/modules/iwgeom/h/IwGeom.h'
p919
(lp920
I1
ag916
asS'c:/marmalade/6.2/modules/iwgeom/h/IwGeomFVec4.h'
p921
(lp922
I1
ag916
asS'c:/marmalade/6.2/modules/iwgeom/h/IwGeomVec2.h'
p923
(lp924
I1
ag916
asS'c:/marmalade/6.2/modules/iwgeom/h/IwGeomIntersect.h'
p925
(lp926
I1
ag916
asS'c:/marmalade/6.2/modules/iwgeom/h/IwGeomFBBox.h'
p927
(lp928
I1
ag916
asS'c:/marmalade/6.2/modules/iwgeom/h/IwGeomLegacy.h'
p929
(lp930
I1
ag916
asS'c:/marmalade/6.2/modules/iwgeom/h/IwGeomSqrt.h'
p931
(lp932
I1
ag916
asS'c:/marmalade/6.2/modules/iwgeom/h/IwGeomFIntersect.h'
p933
(lp934
I1
ag916
asS'c:/marmalade/6.2/modules/iwgeom/h/IwGeomSVec4.h'
p935
(lp936
I1
ag916
asS'c:/marmalade/6.2/modules/iwgeom/h/IwGeomCore.h'
p937
(lp938
I1
ag916
asS'c:/marmalade/6.2/modules/iwgeom/h/IwGeomBBox.h'
p939
(lp940
I1
ag916
asS'c:/marmalade/6.2/modules/iwgeom/h/IwGeomVec4.h'
p941
(lp942
I1
ag916
asS'c:/marmalade/6.2/modules/iwgeom/h/IwGeomFPlane.h'
p943
(lp944
I1
ag916
asS'c:/marmalade/6.2/modules/iwgeom/docs/iwgeom.config.txt'
p945
(lp946
I1
ag916
asS'c:/marmalade/6.2/modules/iwgeom/h/IwGeomSQuat.h'
p947
(lp948
I1
ag916
asS'c:/marmalade/6.2/modules/iwgeom/iwgeom.mkf'
p949
(lp950
I1
a(dp951
asS'c:/marmalade/6.2/modules/iwgeom/h/IwGeomQuat.h'
p952
(lp953
I1
ag916
asS'c:/marmalade/6.2/modules/iwgeom/h/IwGeomMat2D.h'
p954
(lp955
I1
ag916
asS'c:/marmalade/6.2/modules/iwgeom/h/IwGeomFSphere.h'
p956
(lp957
I1
ag916
asS'c:/marmalade/6.2/modules/iwgeom/h/IwGeomSVec3.h'
p958
(lp959
I1
ag916
asS'c:/marmalade/6.2/modules/iwgeom/h/IwGeomSVec2.h'
p960
(lp961
I1
ag916
asS'c:/marmalade/6.2/modules/iwgeom/h/IwGeomSphere.h'
p962
(lp963
I1
ag916
asS'c:/marmalade/6.2/modules/iwgeom/h/IwGeomPlane.h'
p964
(lp965
I1
ag916
asS'c:/marmalade/6.2/modules/iwgeom/h/IwGeomFMat.h'
p966
(lp967
I1
ag916
asS'c:/marmalade/6.2/modules/iwgeom/h/IwGeomFVec2.h'
p968
(lp969
I1
ag916
asS'c:/marmalade/6.2/modules/iwgeom/h/IwGeomMat.h'
p970
(lp971
I1
ag916
asS'c:/marmalade/6.2/modules/iwgeom/h/IwGeomFQuat.h'
p972
(lp973
I1
ag916
asS'c:/marmalade/6.2/modules/iwgeom/h/IwGeomFMat2D.h'
p974
(lp975
I1
ag916
asS'c:/marmalade/6.2/modules/iwgeom/h/IwGeomVec.h'
p976
(lp977
I1
ag916
asS'c:/marmalade/6.2/modules/iwgeom/h/IwGeomVec3.h'
p978
(lp979
I1
ag916
assS'iwresmanager'
p980
(dp981
S'c:/marmalade/6.2/modules/iwresmanager/h/IwResSerialise.h'
p982
(lp983
I1
a(dp984
asS'c:/marmalade/6.2/modules/iwresmanager/h/IwResHandlerGROUP.h'
p985
(lp986
I1
ag984
asS'c:/marmalade/6.2/modules/iwresmanager/h/IwResManagerClass.h'
p987
(lp988
I1
ag984
asS'c:/marmalade/6.2/modules/iwresmanager/h/IwResHandlerImage.h'
p989
(lp990
I1
ag984
asS'c:/marmalade/6.2/modules/iwresmanager/docs/iwresmanager.config.txt'
p991
(lp992
I1
ag984
asS'c:/marmalade/6.2/modules/iwresmanager/h/IwResHandler.h'
p993
(lp994
I1
ag984
asS'c:/marmalade/6.2/modules/iwresmanager/iwresmanager.mkf'
p995
(lp996
I1
a(dp997
asS'c:/marmalade/6.2/modules/iwresmanager/h/IwResGroup.h'
p998
(lp999
I1
ag984
asS'c:/marmalade/6.2/modules/iwresmanager/h/IwResManager.h'
p1000
(lp1001
I1
ag984
asS'c:/marmalade/6.2/modules/iwresmanager/h/IwResHandlerITX.h'
p1002
(lp1003
I1
ag984
assS'iwgx'
p1004
(dp1005
S'c:/marmalade/6.2/modules/iwgx/h/IwGxFuncTable.h'
p1006
(lp1007
I1
a(dp1008
asS'c:/marmalade/6.2/modules/iwgx/h/IwClip.inl'
p1009
(lp1010
I1
ag1008
asS'c:/marmalade/6.2/modules/iwgx/h/IwGxTypes.h'
p1011
(lp1012
I1
ag1008
asS'c:/marmalade/6.2/modules/iwgx/h/IwGxTransformSW.h'
p1013
(lp1014
I1
ag1008
asS'c:/marmalade/6.2/modules/iwgx/docs/iwgx_public.defines.txt'
p1015
(lp1016
I1
ag1008
asS'c:/marmalade/6.2/modules/iwgx/h/IwDebugPrim.h'
p1017
(lp1018
I1
ag1008
asS'c:/marmalade/6.2/modules/iwgx/h/IwResHandlerMTL.h'
p1019
(lp1020
I1
ag1008
asS'c:/marmalade/6.2/modules/iwgx/docs/iwgx.config.txt'
p1021
(lp1022
I1
ag1008
asS'c:/marmalade/6.2/modules/iwgx/h/IwGxDebug.h'
p1023
(lp1024
I1
ag1008
asS'c:/marmalade/6.2/modules/iwgx/h/IwTexture.h'
p1025
(lp1026
I1
ag1008
asS'c:/marmalade/6.2/modules/iwgx/h/IwFColour.h'
p1027
(lp1028
I1
ag1008
asS'c:/marmalade/6.2/modules/iwgx/h/IwGxError.h'
p1029
(lp1030
I1
ag1008
asS'c:/marmalade/6.2/modules/iwgx/h/IwColour.h'
p1031
(lp1032
I1
ag1008
asS'c:/marmalade/6.2/modules/iwgx/h/IwMaterial.h'
p1033
(lp1034
I1
ag1008
asS'c:/marmalade/6.2/modules/iwgx/h/IwGxPrint.h'
p1035
(lp1036
I1
ag1008
asS'c:/marmalade/6.2/modules/iwgx/h/IwTPage.h'
p1037
(lp1038
I1
ag1008
asS'c:/marmalade/6.2/modules/iwgx/iwgx.mkf'
p1039
(lp1040
I1
a(dp1041
asS'c:/marmalade/6.2/modules/iwgx/h/IwGxMetrics.h'
p1042
(lp1043
I1
ag1008
asS'c:/marmalade/6.2/modules/iwgx/h/IwGxSurface.h'
p1044
(lp1045
I1
ag1008
asS'c:/marmalade/6.2/modules/iwgx/h/IwGx.h'
p1046
(lp1047
I1
ag1008
asS'c:/marmalade/6.2/modules/iwgx/h/IwGxShaderTechnique.h'
p1048
(lp1049
I1
ag1008
asS'c:/marmalade/6.2/modules/iwgx/h/IwGxStream.h'
p1050
(lp1051
I1
ag1008
asS'c:/marmalade/6.2/modules/iwgx/h/IwMatAnim.h'
p1052
(lp1053
I1
ag1008
asS'c:/marmalade/6.2/modules/iwgx/h/IwClip.h'
p1054
(lp1055
I1
ag1008
asS'c:/marmalade/6.2/modules/iwgx/h/IwGxState.h'
p1056
(lp1057
I1
ag1008
assS'iwutil'
p1058
(dp1059
S'c:/marmalade/6.2/modules/iwutil/h/IwBuffer.h'
p1060
(lp1061
I1
a(dp1062
asS'c:/marmalade/6.2/modules/iwutil/h/IwResource.h'
p1063
(lp1064
I1
ag1062
asS'c:/marmalade/6.2/modules/iwutil/h/IwFile.h'
p1065
(lp1066
I1
ag1062
asS'c:/marmalade/6.2/modules/iwutil/docs/iwutil.config.txt'
p1067
(lp1068
I1
ag1062
asS'c:/marmalade/6.2/modules/iwutil/h/IwCore.h'
p1069
(lp1070
I1
ag1062
asS'c:/marmalade/6.2/modules/iwutil/h/IwOptimiseSpeed.h'
p1071
(lp1072
I1
ag1062
asS'c:/marmalade/6.2/modules/iwutil/h/IwSerialise.h'
p1073
(lp1074
I1
ag1062
asS'c:/marmalade/6.2/modules/iwutil/h/IwPath.h'
p1075
(lp1076
I1
ag1062
asS'c:/marmalade/6.2/modules/iwutil/h/IwImage.h'
p1077
(lp1078
I1
ag1062
asS'c:/marmalade/6.2/modules/iwutil/h/IwCopyingPtr.h'
p1079
(lp1080
I1
ag1062
asS'c:/marmalade/6.2/modules/iwutil/h/IwUtilInitTerm.h'
p1081
(lp1082
I1
ag1062
asS'c:/marmalade/6.2/modules/iwutil/h/IwOptimiseARM.h'
p1083
(lp1084
I1
ag1062
asS'c:/marmalade/6.2/modules/iwutil/h/IwMath.h'
p1085
(lp1086
I1
ag1062
asS'c:/marmalade/6.2/modules/iwutil/iwutil.mkf'
p1087
(lp1088
I1
a(dp1089
asS'c:/marmalade/6.2/modules/iwutil/h/IwUncopyable.h'
p1090
(lp1091
I1
ag1062
asS'c:/marmalade/6.2/modules/iwutil/h/IwDebug.h'
p1092
(lp1093
I1
ag1062
asS'c:/marmalade/6.2/modules/iwutil/h/IwSingleton.h'
p1094
(lp1095
I1
ag1062
asS'c:/marmalade/6.2/modules/iwutil/h/IwRandom.h'
p1096
(lp1097
I1
ag1062
asS'c:/marmalade/6.2/modules/iwutil/h/IwMemManagerDL.h'
p1098
(lp1099
I1
ag1062
asS'c:/marmalade/6.2/modules/iwutil/h/IwMemory.h'
p1100
(lp1101
I1
ag1062
asS'c:/marmalade/6.2/modules/iwutil/h/IwUtil.h'
p1102
(lp1103
I1
ag1062
asS'c:/marmalade/6.2/modules/iwutil/h/IwManagedList.h'
p1104
(lp1105
I1
ag1062
asS'c:/marmalade/6.2/modules/iwutil/h/IwMenu.h'
p1106
(lp1107
I1
ag1062
asS'c:/marmalade/6.2/modules/iwutil/h/IwArray.h'
p1108
(lp1109
I1
ag1062
asS'c:/marmalade/6.2/modules/iwutil/h/IwOptimiseSize.h'
p1110
(lp1111
I1
ag1062
asS'c:/marmalade/6.2/modules/iwutil/h/IwString.h'
p1112
(lp1113
I1
ag1062
asS'c:/marmalade/6.2/modules/iwutil/h/IwProfileMenu.h'
p1114
(lp1115
I1
ag1062
asS'c:/marmalade/6.2/modules/iwutil/h/IwKeymap.h'
p1116
(lp1117
I1
ag1062
asS'c:/marmalade/6.2/modules/iwutil/h/IwMemBucket.h'
p1118
(lp1119
I1
ag1062
asS'c:/marmalade/6.2/modules/iwutil/h/IwUTF8.h'
p1120
(lp1121
I1
ag1062
asS'c:/marmalade/6.2/modules/iwutil/h/IwRuntime.h'
p1122
(lp1123
I1
ag1062
asS'c:/marmalade/6.2/modules/iwutil/h/IwVariableBitField.h'
p1124
(lp1125
I1
ag1062
asS'c:/marmalade/6.2/modules/iwutil/h/IwOptimiseThumb.h'
p1126
(lp1127
I1
ag1062
asS'c:/marmalade/6.2/modules/iwutil/h/IwList.h'
p1128
(lp1129
I1
ag1062
asS'c:/marmalade/6.2/modules/iwutil/h/IwDivTable.h'
p1130
(lp1131
I1
ag1062
asS'c:/marmalade/6.2/modules/iwutil/h/IwTextParserITX.h'
p1132
(lp1133
I1
ag1062
asS'c:/marmalade/6.2/modules/iwutil/h/IwClassFactory.h'
p1134
(lp1135
I1
ag1062
asS'c:/marmalade/6.2/modules/iwutil/h/IwAutoFile.h'
p1136
(lp1137
I1
ag1062
asS'c:/marmalade/6.2/modules/iwutil/h/IwAllocator.h'
p1138
(lp1139
I1
ag1062
asS'c:/marmalade/6.2/modules/iwutil/h/IwImageHelper.h'
p1140
(lp1141
I1
ag1062
asS'c:/marmalade/6.2/modules/iwutil/h/IwMemBucketHelpers.h'
p1142
(lp1143
I1
ag1062
asS'c:/marmalade/6.2/modules/iwutil/h/IwTextParser.h'
p1144
(lp1145
I1
ag1062
asS'c:/marmalade/6.2/modules/iwutil/h/IwTextParseable.h'
p1146
(lp1147
I1
ag1062
asS'c:/marmalade/6.2/modules/iwutil/h/IwDivide.h'
p1148
(lp1149
I1
ag1062
asS'c:/marmalade/6.2/modules/iwutil/h/IwHashString.h'
p1150
(lp1151
I1
ag1062
asS'c:/marmalade/6.2/modules/iwutil/h/IwTypes.h'
p1152
(lp1153
I1
ag1062
asS'c:/marmalade/6.2/modules/iwutil/h/IwManaged.h'
p1154
(lp1155
I1
ag1062
asS'c:/marmalade/6.2/modules/iwutil/h/IwEvent.h'
p1156
(lp1157
I1
ag1062
asS'c:/marmalade/6.2/modules/iwutil/h/IwChar.h'
p1158
(lp1159
I1
ag1062
asS'c:/marmalade/6.2/modules/iwutil/h/IwFibre.h'
p1160
(lp1161
I1
ag1062
asssS'c:/Users/ironwk/Documents/blackberry/juego/agentBaconLalo - V1.3(ariel)/source/LifeStatus.cpp'
p1162
(lp1163
I1
ag777
asS'c:/Users/ironwk/Documents/blackberry/juego/agentBaconLalo - V1.3(ariel)/source/Bacon.cpp'
p1164
(lp1165
I1
ag777
asS'c:/Users/ironwk/Documents/blackberry/juego/agentBaconLalo - V1.3(ariel)/source/Tnt.cpp'
p1166
(lp1167
I1
ag777
asS'c:/Users/ironwk/Documents/blackberry/juego/agentBaconLalo - V1.3(ariel)/source/Tank.cpp'
p1168
(lp1169
I1
ag777
asS'(SoundEngine)'
p1170
(dp1171
S'c:/users/ironwk/documents/blackberry/juego/agentbaconlalo - v1.3(ariel)/soundengine/source/IwSoundManager.cpp'
p1172
(lp1173
I1
a(dp1174
asS'c:/users/ironwk/documents/blackberry/juego/agentbaconlalo - v1.3(ariel)/soundengine/source/IwSoundSpec.cpp'
p1175
(lp1176
I1
ag1174
asS'c:/users/ironwk/documents/blackberry/juego/agentbaconlalo - v1.3(ariel)/soundengine/h/IwSoundSpec.h'
p1177
(lp1178
I1
ag1174
asS'c:/users/ironwk/documents/blackberry/juego/agentbaconlalo - v1.3(ariel)/soundengine/h/IwSoundParams.h'
p1179
(lp1180
I1
ag1174
asS'c:/users/ironwk/documents/blackberry/juego/agentbaconlalo - v1.3(ariel)/soundengine/source/IwSoundGroup.cpp'
p1181
(lp1182
I1
ag1174
asS'c:/users/ironwk/documents/blackberry/juego/agentbaconlalo - v1.3(ariel)/soundengine/source/IwSoundData.cpp'
p1183
(lp1184
I1
ag1174
asS'Docs'
p1185
(dp1186
S'c:/users/ironwk/documents/blackberry/juego/agentbaconlalo - v1.3(ariel)/soundengine/docs/iwsound.config.txt'
p1187
(lp1188
I1
ag1174
assS'c:/users/ironwk/documents/blackberry/juego/agentbaconlalo - v1.3(ariel)/soundengine/h/IwSoundGroup.h'
p1189
(lp1190
I1
ag1174
asS'c:/users/ironwk/documents/blackberry/juego/agentbaconlalo - v1.3(ariel)/soundengine/source/IwSoundInst.cpp'
p1191
(lp1192
I1
ag1174
asS'c:/users/ironwk/documents/blackberry/juego/agentbaconlalo - v1.3(ariel)/soundengine/source/IwSoundADPCM.cpp'
p1193
(lp1194
I1
ag1174
asS'c:/users/ironwk/documents/blackberry/juego/agentbaconlalo - v1.3(ariel)/soundengine/h/IwSoundManager.h'
p1195
(lp1196
I1
ag1174
asS'c:/users/ironwk/documents/blackberry/juego/agentbaconlalo - v1.3(ariel)/soundengine/h/IwResHandlerWAV.h'
p1197
(lp1198
I1
ag1174
asS'c:/users/ironwk/documents/blackberry/juego/agentbaconlalo - v1.3(ariel)/soundengine/h/IwSoundInst.h'
p1199
(lp1200
I1
ag1174
asS'c:/users/ironwk/documents/blackberry/juego/agentbaconlalo - v1.3(ariel)/soundengine/h/IwSoundADPCM.h'
p1201
(lp1202
I1
ag1174
asS'c:/users/ironwk/documents/blackberry/juego/agentbaconlalo - v1.3(ariel)/soundengine/source/IwSoundPCM.cpp'
p1203
(lp1204
I1
ag1174
asS'c:/users/ironwk/documents/blackberry/juego/agentbaconlalo - v1.3(ariel)/soundengine/h/IwSoundData.h'
p1205
(lp1206
I1
ag1174
asS'c:/users/ironwk/documents/blackberry/juego/agentbaconlalo - v1.3(ariel)/soundengine/source/IwSoundParams.cpp'
p1207
(lp1208
I1
ag1174
asS'c:/users/ironwk/documents/blackberry/juego/agentbaconlalo - v1.3(ariel)/soundengine/source/IwResHandlerWAV.cpp'
p1209
(lp1210
I1
ag1174
asS'c:/users/ironwk/documents/blackberry/juego/agentbaconlalo - v1.3(ariel)/soundengine/soundengine.mkf'
p1211
(lp1212
I1
a(dp1213
asS'c:/users/ironwk/documents/blackberry/juego/agentbaconlalo - v1.3(ariel)/soundengine/h/IwSoundPCM.h'
p1214
(lp1215
I1
ag1174
asS'c:/users/ironwk/documents/blackberry/juego/agentbaconlalo - v1.3(ariel)/soundengine/h/IwSound.h'
p1216
(lp1217
I1
ag1174
assS'c:/Users/ironwk/Documents/blackberry/juego/agentBaconLalo - V1.3(ariel)/source/claws.cpp'
p1218
(lp1219
I1
ag777
asS'c:/Users/ironwk/Documents/blackberry/juego/agentBaconLalo - V1.3(ariel)/source/main.cpp'
p1220
(lp1221
I1
ag777
asS'c:/Users/ironwk/Documents/blackberry/juego/agentBaconLalo - V1.3(ariel)/source/sprites.h'
p1222
(lp1223
I1
ag777
asS'c:/Users/ironwk/Documents/blackberry/juego/agentBaconLalo - V1.3(ariel)/source/sprites.cpp'
p1224
(lp1225
I1
ag777
asS'c:/Users/ironwk/Documents/blackberry/juego/agentBaconLalo - V1.3(ariel)/source/Chuletas.cpp'
p1226
(lp1227
I1
ag777
asS'c:/Users/ironwk/Documents/blackberry/juego/agentBaconLalo - V1.3(ariel)/source/Tnt.h'
p1228
(lp1229
I1
ag777
asS'c:/Users/ironwk/Documents/blackberry/juego/agentBaconLalo - V1.3(ariel)/source/Font.cpp'
p1230
(lp1231
I1
ag777
asS'c:/Users/ironwk/Documents/blackberry/juego/agentBaconLalo - V1.3(ariel)/source/MiniCoin.cpp'
p1232
(lp1233
I1
ag777
asS'c:/Users/ironwk/Documents/blackberry/juego/agentBaconLalo - V1.3(ariel)/source/claws.h'
p1234
(lp1235
I1
ag777
asS'c:/Users/ironwk/Documents/blackberry/juego/agentBaconLalo - V1.3(ariel)/source/Musica.cpp'
p1236
(lp1237
I1
ag777
asS'c:/Users/ironwk/Documents/blackberry/juego/agentBaconLalo - V1.3(ariel)/source/Font.h'
p1238
(lp1239
I1
ag777
asS'c:/Users/ironwk/Documents/blackberry/juego/agentBaconLalo - V1.3(ariel)/source/Input.cpp'
p1240
(lp1241
I1
ag777
assS'files'
p1242
(dp1243
S'IwGxFontPreparedData.h'
p1244
g239
(cmkb_main
File
p1245
g241
Ntp1246
Rp1247
(dp1248
S'flags'
p1249
g894
sS'group'
p1250
(lp1251
S"'Marmalade Studio'"
p1252
ag890
asg269
g902
sbsS'iterator'
p1253
g239
(g1245
g241
Ntp1254
Rp1255
(dp1256
g1249
(dp1257
sg1250
(lp1258
S"'Marmalade System (S3E)'"
p1259
aS'stdc headers'
p1260
aS'c++'
p1261
asg269
S'c:/marmalade/6.2/s3e/h/std/c++/iterator'
p1262
sbsS'IwGeomPlane.h'
p1263
g239
(g1245
g241
Ntp1264
Rp1265
(dp1266
g1249
g916
sg1250
(lp1267
S"'Marmalade Studio'"
p1268
ag912
asg269
g964
sbsS's3e.h'
p1269
g239
(g1245
g241
Ntp1270
Rp1271
(dp1272
g1249
g1257
sg1250
(lp1273
g1259
asg269
S'c:/marmalade/6.2/s3e/h/s3e.h'
p1274
sbsS'errno.h'
p1275
g239
(g1245
g241
Ntp1276
Rp1277
(dp1278
g1249
g1257
sg1250
(lp1279
g1259
aS'stdc headers'
p1280
asg269
S'c:/marmalade/6.2/s3e/h/std/errno.h'
p1281
sbsS'IwSingleton.h'
p1282
g239
(g1245
g241
Ntp1283
Rp1284
(dp1285
g1249
g1062
sg1250
(lp1286
S"'Marmalade Studio'"
p1287
ag1058
asg269
g1094
sbsS'dlfcn.h'
p1288
g239
(g1245
g241
Ntp1289
Rp1290
(dp1291
g1249
g1257
sg1250
g1279
sg269
S'c:/marmalade/6.2/s3e/h/std/dlfcn.h'
p1292
sbsS'stdio_streambuf'
p1293
g239
(g1245
g241
Ntp1294
Rp1295
(dp1296
g1249
g1257
sg1250
g1258
sg269
S'c:/marmalade/6.2/s3e/h/std/c++/stdio_streambuf'
p1297
sbsS'sched.h'
p1298
g239
(g1245
g241
Ntp1299
Rp1300
(dp1301
g1249
g1257
sg1250
g1279
sg269
S'c:/marmalade/6.2/s3e/h/std/sched.h'
p1302
sbsS'IwSoundPCM.h'
p1303
g239
(g1245
g241
Ntp1304
Rp1305
(dp1306
g1249
g1174
sg1250
(lp1307
g1170
asg269
g1214
sbsS'IwGeomFMat2D.h'
p1308
g239
(g1245
g241
Ntp1309
Rp1310
(dp1311
g1249
g916
sg1250
g1267
sg269
g974
sbsS'cassert'
p1312
g239
(g1245
g241
Ntp1313
Rp1314
(dp1315
g1249
g1257
sg1250
g1258
sg269
S'c:/marmalade/6.2/s3e/h/std/c++/cassert'
p1316
sbsS'grp.h'
p1317
g239
(g1245
g241
Ntp1318
Rp1319
(dp1320
g1249
g1257
sg1250
g1279
sg269
S'c:/marmalade/6.2/s3e/h/std/grp.h'
p1321
sbsS'list'
p1322
g239
(g1245
g241
Ntp1323
Rp1324
(dp1325
g1249
g1257
sg1250
g1258
sg269
S'c:/marmalade/6.2/s3e/h/std/c++/list'
p1326
sbsS'IwSoundSpec.cpp'
p1327
g239
(g1245
g241
Ntp1328
Rp1329
(dp1330
g1249
g1174
sg1250
g1307
sg269
g1175
sbsS'istream'
p1331
g239
(g1245
g241
Ntp1332
Rp1333
(dp1334
g1249
g1257
sg1250
g1258
sg269
S'c:/marmalade/6.2/s3e/h/std/c++/istream'
p1335
sbsVjpeglib.h
p1336
g239
(g1245
g241
Ntp1337
Rp1338
(dp1339
g1249
g792
sg1250
(lp1340
g788
asg269
g803
sbsS'iw2d_public.defines.txt'
p1341
g239
(g1245
g241
Ntp1342
Rp1343
(dp1344
g1249
g882
sg1250
(lp1345
S"'Marmalade Studio'"
p1346
ag878
asg269
g883
sbsS'iostream.h'
p1347
g239
(g1245
g241
Ntp1348
Rp1349
(dp1350
g1249
g1257
sg1250
g1258
sg269
S'c:/marmalade/6.2/s3e/h/std/c++/iostream.h'
p1351
sbsS'IwSoundADPCM.h'
p1352
g239
(g1245
g241
Ntp1353
Rp1354
(dp1355
g1249
g1174
sg1250
g1307
sg269
g1201
sbsS'string'
p1356
g239
(g1245
g241
Ntp1357
Rp1358
(dp1359
g1249
g1257
sg1250
g1258
sg269
S'c:/marmalade/6.2/s3e/h/std/c++/string'
p1360
sbsS'IwMemory.h'
p1361
g239
(g1245
g241
Ntp1362
Rp1363
(dp1364
g1249
g1062
sg1250
g1286
sg269
g1100
sbsS'IwGL.h'
p1365
g239
(g1245
g241
Ntp1366
Rp1367
(dp1368
g1249
g870
sg1250
(lp1369
S"'Marmalade Studio'"
p1370
ag866
asg269
g873
sbsS'iw2d.config.txt'
p1371
g239
(g1245
g241
Ntp1372
Rp1373
(dp1374
g1249
g882
sg1250
g1345
sg269
g885
sbsS'Chuletas.cpp'
p1375
g239
(g1245
g241
Ntp1376
Rp1377
(dp1378
g1249
g777
sg1250
(lp1379
sg269
g1226
sbsS'iwgeom.mkf'
p1380
g239
(g1245
g241
Ntp1381
Rp1382
(dp1383
g1249
g951
sg1250
g1267
sg269
g949
sbsS'IwGxError.h'
p1384
g239
(g1245
g241
Ntp1385
Rp1386
(dp1387
g1249
g1008
sg1250
(lp1388
S"'Marmalade Studio'"
p1389
ag1004
asg269
g1029
sbsS'IwGeom.h'
p1390
g239
(g1245
g241
Ntp1391
Rp1392
(dp1393
g1249
g916
sg1250
g1267
sg269
g919
sbsS'IwGeomVec4.h'
p1394
g239
(g1245
g241
Ntp1395
Rp1396
(dp1397
g1249
g916
sg1250
g1267
sg269
g941
sbsS'dir.h'
p1398
g239
(g1245
g241
Ntp1399
Rp1400
(dp1401
g1249
g1257
sg1250
(lp1402
g1259
aS'stdc headers'
p1403
aS'sys'
p1404
asg269
S'c:/marmalade/6.2/s3e/h/std/sys/dir.h'
p1405
sbsS'locale.h'
p1406
g239
(g1245
g241
Ntp1407
Rp1408
(dp1409
g1249
g1257
sg1250
g1279
sg269
S'c:/marmalade/6.2/s3e/h/std/locale.h'
p1410
sbsS'vector'
p1411
g239
(g1245
g241
Ntp1412
Rp1413
(dp1414
g1249
g1257
sg1250
g1258
sg269
S'c:/marmalade/6.2/s3e/h/std/c++/vector'
p1415
sbsS'IwManaged.h'
p1416
g239
(g1245
g241
Ntp1417
Rp1418
(dp1419
g1249
g1062
sg1250
g1286
sg269
g1154
sbsS's3eCompass.h'
p1420
g239
(g1245
g241
Ntp1421
Rp1422
(dp1423
g1249
g1257
sg1250
g1273
sg269
S'c:/marmalade/6.2/s3e/h/s3eCompass.h'
p1424
sbsVcderror.h
p1425
g239
(g1245
g241
Ntp1426
Rp1427
(dp1428
g1249
g792
sg1250
g1340
sg269
g799
sbsS'climits'
p1429
g239
(g1245
g241
Ntp1430
Rp1431
(dp1432
g1249
g1257
sg1250
g1258
sg269
S'c:/marmalade/6.2/s3e/h/std/c++/climits'
p1433
sbsS's3eVibra.h'
p1434
g239
(g1245
g241
Ntp1435
Rp1436
(dp1437
g1249
g1257
sg1250
g1273
sg269
S'c:/marmalade/6.2/s3e/h/s3eVibra.h'
p1438
sbsVjversion.h
p1439
g239
(g1245
g241
Ntp1440
Rp1441
(dp1442
g1249
g792
sg1250
g1340
sg269
g810
sbsS'fnmatch.h'
p1443
g239
(g1245
g241
Ntp1444
Rp1445
(dp1446
g1249
g1257
sg1250
g1279
sg269
S'c:/marmalade/6.2/s3e/h/std/fnmatch.h'
p1447
sbsS'IwGxState.h'
p1448
g239
(g1245
g241
Ntp1449
Rp1450
(dp1451
g1249
g1008
sg1250
g1388
sg269
g1056
sbsS's3eAudio.h'
p1452
g239
(g1245
g241
Ntp1453
Rp1454
(dp1455
g1249
g1257
sg1250
g1273
sg269
S'c:/marmalade/6.2/s3e/h/s3eAudio.h'
p1456
sbsS's3eSurface.h'
p1457
g239
(g1245
g241
Ntp1458
Rp1459
(dp1460
g1249
g1257
sg1250
g1273
sg269
S'c:/marmalade/6.2/s3e/h/s3eSurface.h'
p1461
sbsS'new'
p1462
g239
(g1245
g241
Ntp1463
Rp1464
(dp1465
g1249
g1257
sg1250
g1258
sg269
S'c:/marmalade/6.2/s3e/h/std/c++/new'
p1466
sbsS's3eWindow.h'
p1467
g239
(g1245
g241
Ntp1468
Rp1469
(dp1470
g1249
g1257
sg1250
(lp1471
g1259
aS'Extensions'
p1472
asg269
S'c:/marmalade/6.2/s3e/h/ext/s3eWindow.h'
p1473
sbsS'IwBuffer.h'
p1474
g239
(g1245
g241
Ntp1475
Rp1476
(dp1477
g1249
g1062
sg1250
g1286
sg269
g1060
sbsS's3eOSExec.h'
p1478
g239
(g1245
g241
Ntp1479
Rp1480
(dp1481
g1249
g1257
sg1250
g1471
sg269
S'c:/marmalade/6.2/s3e/h/ext/s3eOSExec.h'
p1482
sbsS'IwGxTransformSW.h'
p1483
g239
(g1245
g241
Ntp1484
Rp1485
(dp1486
g1249
g1008
sg1250
g1388
sg269
g1013
sbsS'IwGxMetrics.h'
p1487
g239
(g1245
g241
Ntp1488
Rp1489
(dp1490
g1249
g1008
sg1250
g1388
sg269
g1042
sbsS'iwgxfont.config.txt'
p1491
g239
(g1245
g241
Ntp1492
Rp1493
(dp1494
g1249
g894
sg1250
g1251
sg269
g908
sbsS'gl2platform.h'
p1495
g239
(g1245
g241
Ntp1496
Rp1497
(dp1498
g1249
g1257
sg1250
(lp1499
g1259
aS'GL'
p1500
aS'GLES 2.0'
p1501
asg269
S'c:/marmalade/6.2/s3e/h/GLES2/gl2platform.h'
p1502
sbsS'IwResManagerClass.h'
p1503
g239
(g1245
g241
Ntp1504
Rp1505
(dp1506
g1249
g984
sg1250
(lp1507
g864
ag980
asg269
g987
sbsS'queue'
p1508
g239
(g1245
g241
Ntp1509
Rp1510
(dp1511
g1249
g1257
sg1250
g1258
sg269
S'c:/marmalade/6.2/s3e/h/std/c++/queue'
p1512
sbsS'time_1.h'
p1513
g239
(g1245
g241
Ntp1514
Rp1515
(dp1516
g1249
g1257
sg1250
g1402
sg269
S'c:/marmalade/6.2/s3e/h/std/sys/time.h'
p1517
sbsS'corazones.cpp'
p1518
g239
(g1245
g241
Ntp1519
Rp1520
(dp1521
g1249
g777
sg1250
g1379
sg269
g838
sbsS'Fondo.cpp'
p1522
g239
(g1245
g241
Ntp1523
Rp1524
(dp1525
g1249
g777
sg1250
g1379
sg269
g854
sbsS'Input.cpp'
p1526
g239
(g1245
g241
Ntp1527
Rp1528
(dp1529
g1249
g777
sg1250
g1379
sg269
g1240
sbsS'IwGeomVec2.h'
p1530
g239
(g1245
g241
Ntp1531
Rp1532
(dp1533
g1249
g916
sg1250
g1267
sg269
g923
sbsS's3eDevice.h'
p1534
g239
(g1245
g241
Ntp1535
Rp1536
(dp1537
g1249
g1257
sg1250
g1273
sg269
S'c:/marmalade/6.2/s3e/h/s3eDevice.h'
p1538
sbsS'malloc.h'
p1539
g239
(g1245
g241
Ntp1540
Rp1541
(dp1542
g1249
g1257
sg1250
g1279
sg269
S'c:/marmalade/6.2/s3e/h/std/malloc.h'
p1543
sbsS'stdarg.h'
p1544
g239
(g1245
g241
Ntp1545
Rp1546
(dp1547
g1249
g1257
sg1250
g1279
sg269
S'c:/marmalade/6.2/s3e/h/std/stdarg.h'
p1548
sbsS'IwGeomCore.h'
p1549
g239
(g1245
g241
Ntp1550
Rp1551
(dp1552
g1249
g916
sg1250
g1267
sg269
g937
sbsS'endian.h'
p1553
g239
(g1245
g241
Ntp1554
Rp1555
(dp1556
g1249
g1257
sg1250
g1279
sg269
S'c:/marmalade/6.2/s3e/h/std/endian.h'
p1557
sbsS'glob.h'
p1558
g239
(g1245
g241
Ntp1559
Rp1560
(dp1561
g1249
g1257
sg1250
g1279
sg269
S'c:/marmalade/6.2/s3e/h/std/glob.h'
p1562
sbsS'fstream'
p1563
g239
(g1245
g241
Ntp1564
Rp1565
(dp1566
g1249
g1257
sg1250
g1258
sg269
S'c:/marmalade/6.2/s3e/h/std/c++/fstream'
p1567
sbsS's3eCamera.h'
p1568
g239
(g1245
g241
Ntp1569
Rp1570
(dp1571
g1249
g1257
sg1250
g1273
sg269
S'c:/marmalade/6.2/s3e/h/s3eCamera.h'
p1572
sbsVjconfig.h
p1573
g239
(g1245
g241
Ntp1574
Rp1575
(dp1576
g1249
g792
sg1250
g1340
sg269
g801
sbsS'memory'
p1577
g239
(g1245
g241
Ntp1578
Rp1579
(dp1580
g1249
g1257
sg1250
g1258
sg269
S'c:/marmalade/6.2/s3e/h/std/c++/memory'
p1581
sbsS'egl.h'
p1582
g239
(g1245
g241
Ntp1583
Rp1584
(dp1585
g1249
g1257
sg1250
(lp1586
g1259
aS'GL'
p1587
aS'EGL'
p1588
asg269
S'c:/marmalade/6.2/s3e/h/EGL/egl.h'
p1589
sbsS'IwClip.inl'
p1590
g239
(g1245
g241
Ntp1591
Rp1592
(dp1593
g1249
g1008
sg1250
g1388
sg269
g1009
sbsS'IwMemManagerDL.h'
p1594
g239
(g1245
g241
Ntp1595
Rp1596
(dp1597
g1249
g1062
sg1250
g1286
sg269
g1098
sbsS'deque'
p1598
g239
(g1245
g241
Ntp1599
Rp1600
(dp1601
g1249
g1257
sg1250
g1258
sg269
S'c:/marmalade/6.2/s3e/h/std/c++/deque'
p1602
sbsS'IwString.h'
p1603
g239
(g1245
g241
Ntp1604
Rp1605
(dp1606
g1249
g1062
sg1250
g1286
sg269
g1112
sbsS'cwchar'
p1607
g239
(g1245
g241
Ntp1608
Rp1609
(dp1610
g1249
g1257
sg1250
g1258
sg269
S'c:/marmalade/6.2/s3e/h/std/c++/cwchar'
p1611
sbsS'iwutil.mkf'
p1612
g239
(g1245
g241
Ntp1613
Rp1614
(dp1615
g1249
g1089
sg1250
g1286
sg269
g1087
sbsS'csignal'
p1616
g239
(g1245
g241
Ntp1617
Rp1618
(dp1619
g1249
g1257
sg1250
g1258
sg269
S'c:/marmalade/6.2/s3e/h/std/c++/csignal'
p1620
sbsS'float.h'
p1621
g239
(g1245
g241
Ntp1622
Rp1623
(dp1624
g1249
g1257
sg1250
g1279
sg269
S'c:/marmalade/6.2/s3e/h/std/float.h'
p1625
sbsS'Tnt.h'
p1626
g239
(g1245
g241
Ntp1627
Rp1628
(dp1629
g1249
g777
sg1250
g1379
sg269
g1228
sbsS'pthread_alloc'
p1630
g239
(g1245
g241
Ntp1631
Rp1632
(dp1633
g1249
g1257
sg1250
g1258
sg269
S'c:/marmalade/6.2/s3e/h/std/c++/pthread_alloc'
p1634
sbsS'getopt.h'
p1635
g239
(g1245
g241
Ntp1636
Rp1637
(dp1638
g1249
g1257
sg1250
g1279
sg269
S'c:/marmalade/6.2/s3e/h/std/getopt.h'
p1639
sbsS'IwOptimiseARM.h'
p1640
g239
(g1245
g241
Ntp1641
Rp1642
(dp1643
g1249
g1062
sg1250
g1286
sg269
g1083
sbsS'times.h'
p1644
g239
(g1245
g241
Ntp1645
Rp1646
(dp1647
g1249
g1257
sg1250
g1402
sg269
S'c:/marmalade/6.2/s3e/h/std/sys/times.h'
p1648
sbsS'IwGeomFSphere.h'
p1649
g239
(g1245
g241
Ntp1650
Rp1651
(dp1652
g1249
g916
sg1250
g1267
sg269
g956
sbsS'functional'
p1653
g239
(g1245
g241
Ntp1654
Rp1655
(dp1656
g1249
g1257
sg1250
g1258
sg269
S'c:/marmalade/6.2/s3e/h/std/c++/functional'
p1657
sbsS'IwTypes.h'
p1658
g239
(g1245
g241
Ntp1659
Rp1660
(dp1661
g1249
g1062
sg1250
g1286
sg269
g1152
sbsS'Splash.cpp'
p1662
g239
(g1245
g241
Ntp1663
Rp1664
(dp1665
g1249
g777
sg1250
g1379
sg269
g775
sbsS'unistd.h'
p1666
g239
(g1245
g241
Ntp1667
Rp1668
(dp1669
g1249
g1257
sg1250
g1279
sg269
S'c:/marmalade/6.2/s3e/h/std/unistd.h'
p1670
sbsS'Input.h'
p1671
g239
(g1245
g241
Ntp1672
Rp1673
(dp1674
g1249
g777
sg1250
g1379
sg269
g842
sbsS's3eCompression.h'
p1675
g239
(g1245
g241
Ntp1676
Rp1677
(dp1678
g1249
g1257
sg1250
g1273
sg269
S'c:/marmalade/6.2/s3e/h/s3eCompression.h'
p1679
sbsS'langinfo.h'
p1680
g239
(g1245
g241
Ntp1681
Rp1682
(dp1683
g1249
g1257
sg1250
g1279
sg269
S'c:/marmalade/6.2/s3e/h/std/langinfo.h'
p1684
sbsS's3edebugHeap.h'
p1685
g239
(g1245
g241
Ntp1686
Rp1687
(dp1688
g1249
g1257
sg1250
g1471
sg269
S'c:/marmalade/6.2/s3e/h/ext/s3edebugHeap.h'
p1689
sbsS'IwHashString.h'
p1690
g239
(g1245
g241
Ntp1691
Rp1692
(dp1693
g1249
g1062
sg1250
g1286
sg269
g1150
sbsS'AirplayVersion.h'
p1694
g239
(g1245
g241
Ntp1695
Rp1696
(dp1697
g1249
g1257
sg1250
g1273
sg269
S'c:/marmalade/6.2/s3e/h/AirplayVersion.h'
p1698
sbsS'gl2extimg.h'
p1699
g239
(g1245
g241
Ntp1700
Rp1701
(dp1702
g1249
g1257
sg1250
g1499
sg269
S'c:/marmalade/6.2/s3e/h/GLES2/gl2extimg.h'
p1703
sbsS'IwGeomSqrt.h'
p1704
g239
(g1245
g241
Ntp1705
Rp1706
(dp1707
g1249
g916
sg1250
g1267
sg269
g931
sbsVtiniconv_int.h
p1708
g239
(g1245
g241
Ntp1709
Rp1710
(dp1711
g1249
g829
sg1250
(lp1712
g822
asg269
g827
sbsS'syslog.h'
p1713
g239
(g1245
g241
Ntp1714
Rp1715
(dp1716
g1249
g1257
sg1250
g1279
sg269
S'c:/marmalade/6.2/s3e/h/std/syslog.h'
p1717
sbsS'IwGxFontTypes.h'
p1718
g239
(g1245
g241
Ntp1719
Rp1720
(dp1721
g1249
g894
sg1250
g1251
sg269
g906
sbsS'IwGeomFIntersect.h'
p1722
g239
(g1245
g241
Ntp1723
Rp1724
(dp1725
g1249
g916
sg1250
g1267
sg269
g933
sbsS'hash_map'
p1726
g239
(g1245
g241
Ntp1727
Rp1728
(dp1729
g1249
g1257
sg1250
g1258
sg269
S'c:/marmalade/6.2/s3e/h/std/c++/hash_map'
p1730
sbsS's3e.mkf'
p1731
g239
(g1245
g241
Ntp1732
Rp1733
(dp1734
g1249
(dp1735
sg1250
g1273
sg269
S'c:/marmalade/6.2/s3e/s3e.mkf'
p1736
sbsS'MiniCoin.cpp'
p1737
g239
(g1245
g241
Ntp1738
Rp1739
(dp1740
g1249
g777
sg1250
g1379
sg269
g1232
sbsS's3eOSReadString.h'
p1741
g239
(g1245
g241
Ntp1742
Rp1743
(dp1744
g1249
g1257
sg1250
g1471
sg269
S'c:/marmalade/6.2/s3e/h/ext/s3eOSReadString.h'
p1745
sbsS'IwSound.h'
p1746
g239
(g1245
g241
Ntp1747
Rp1748
(dp1749
g1249
g1174
sg1250
g1307
sg269
g1216
sbsS'map'
p1750
g239
(g1245
g241
Ntp1751
Rp1752
(dp1753
g1249
g1257
sg1250
g1258
sg269
S'c:/marmalade/6.2/s3e/h/std/c++/map'
p1754
sbsS'claws.cpp'
p1755
g239
(g1245
g241
Ntp1756
Rp1757
(dp1758
g1249
g777
sg1250
g1379
sg269
g1218
sbsS'IwOptimiseSpeed.h'
p1759
g239
(g1245
g241
Ntp1760
Rp1761
(dp1762
g1249
g1062
sg1250
g1286
sg269
g1071
sbsS'ostream'
p1763
g239
(g1245
g241
Ntp1764
Rp1765
(dp1766
g1249
g1257
sg1250
g1258
sg269
S'c:/marmalade/6.2/s3e/h/std/c++/ostream'
p1767
sbsS'msl_string.h'
p1768
g239
(g1245
g241
Ntp1769
Rp1770
(dp1771
g1249
g1257
sg1250
g1258
sg269
S'c:/marmalade/6.2/s3e/h/std/c++/msl_string.h'
p1772
sbsS'select.h'
p1773
g239
(g1245
g241
Ntp1774
Rp1775
(dp1776
g1249
g1257
sg1250
g1402
sg269
S'c:/marmalade/6.2/s3e/h/std/sys/select.h'
p1777
sbsVzlib.mkf
p1778
g239
(g1245
g241
Ntp1779
Rp1780
(dp1781
g1249
g851
sg1250
(lp1782
g844
asg269
g849
sbsS'signal.h'
p1783
g239
(g1245
g241
Ntp1784
Rp1785
(dp1786
g1249
g1257
sg1250
g1279
sg269
S'c:/marmalade/6.2/s3e/h/std/signal.h'
p1787
sbsS'sigcontext.h'
p1788
g239
(g1245
g241
Ntp1789
Rp1790
(dp1791
g1249
g1257
sg1250
g1279
sg269
S'c:/marmalade/6.2/s3e/h/std/sigcontext.h'
p1792
sbsVlibpng.mkf
p1793
g239
(g1245
g241
Ntp1794
Rp1795
(dp1796
g1249
g785
sg1250
(lp1797
g778
asg269
g783
sbsS's3eClipboard.h'
p1798
g239
(g1245
g241
Ntp1799
Rp1800
(dp1801
g1249
g1257
sg1250
g1273
sg269
S'c:/marmalade/6.2/s3e/h/s3eClipboard.h'
p1802
sbsS'IwGxFuncTable.h'
p1803
g239
(g1245
g241
Ntp1804
Rp1805
(dp1806
g1249
g1008
sg1250
g1388
sg269
g1006
sbsS'IwResHandlerGROUP.h'
p1807
g239
(g1245
g241
Ntp1808
Rp1809
(dp1810
g1249
g984
sg1250
g1507
sg269
g985
sbsS's3eDebug.h'
p1811
g239
(g1245
g241
Ntp1812
Rp1813
(dp1814
g1249
g1257
sg1250
g1273
sg269
S'c:/marmalade/6.2/s3e/h/s3eDebug.h'
p1815
sbsS'socket.h'
p1816
g239
(g1245
g241
Ntp1817
Rp1818
(dp1819
g1249
g1257
sg1250
g1402
sg269
S'c:/marmalade/6.2/s3e/h/std/sys/socket.h'
p1820
sbsS'glext.h'
p1821
g239
(g1245
g241
Ntp1822
Rp1823
(dp1824
g1249
g1257
sg1250
(lp1825
g1259
aS'GL'
p1826
aS'GLES 1.x'
p1827
asg269
S'c:/marmalade/6.2/s3e/h/GLES/glext.h'
p1828
sbsS'iomanip'
p1829
g239
(g1245
g241
Ntp1830
Rp1831
(dp1832
g1249
g1257
sg1250
g1258
sg269
S'c:/marmalade/6.2/s3e/h/std/c++/iomanip'
p1833
sbsS'typeinfo.h'
p1834
g239
(g1245
g241
Ntp1835
Rp1836
(dp1837
g1249
g1257
sg1250
g1258
sg269
S'c:/marmalade/6.2/s3e/h/std/c++/typeinfo.h'
p1838
sbsS'typeinfo'
p1839
g239
(g1245
g241
Ntp1840
Rp1841
(dp1842
g1249
g1257
sg1250
g1258
sg269
S'c:/marmalade/6.2/s3e/h/std/c++/typeinfo'
p1843
sbsS'iwsound.config.txt'
p1844
g239
(g1245
g241
Ntp1845
Rp1846
(dp1847
g1249
g1174
sg1250
(lp1848
g1170
ag1185
asg269
g1187
sbsS'fstream.h'
p1849
g239
(g1245
g241
Ntp1850
Rp1851
(dp1852
g1249
g1257
sg1250
g1258
sg269
S'c:/marmalade/6.2/s3e/h/std/c++/fstream.h'
p1853
sbsS's3ePointer.h'
p1854
g239
(g1245
g241
Ntp1855
Rp1856
(dp1857
g1249
g1257
sg1250
g1273
sg269
S'c:/marmalade/6.2/s3e/h/s3ePointer.h'
p1858
sbsS'iw2d.mkf'
p1859
g239
(g1245
g241
Ntp1860
Rp1861
(dp1862
g1249
g889
sg1250
g1345
sg269
g887
sbsS's3eGL.h'
p1863
g239
(g1245
g241
Ntp1864
Rp1865
(dp1866
g1249
g1257
sg1250
g1273
sg269
S'c:/marmalade/6.2/s3e/h/s3eGL.h'
p1867
sbsS'Musica.cpp'
p1868
g239
(g1245
g241
Ntp1869
Rp1870
(dp1871
g1249
g777
sg1250
g1379
sg269
g1236
sbsS'IwGeomFVec2.h'
p1872
g239
(g1245
g241
Ntp1873
Rp1874
(dp1875
g1249
g916
sg1250
g1267
sg269
g968
sbsS'IwGeomSVec4.h'
p1876
g239
(g1245
g241
Ntp1877
Rp1878
(dp1879
g1249
g916
sg1250
g1267
sg269
g935
sbsS'poll.h'
p1880
g239
(g1245
g241
Ntp1881
Rp1882
(dp1883
g1249
g1257
sg1250
g1279
sg269
S'c:/marmalade/6.2/s3e/h/std/poll.h'
p1884
sbsS'IwMatAnim.h'
p1885
g239
(g1245
g241
Ntp1886
Rp1887
(dp1888
g1249
g1008
sg1250
g1388
sg269
g1052
sbsS'IwGeomFVec4.h'
p1889
g239
(g1245
g241
Ntp1890
Rp1891
(dp1892
g1249
g916
sg1250
g1267
sg269
g921
sbsS'IwGx.h'
p1893
g239
(g1245
g241
Ntp1894
Rp1895
(dp1896
g1249
g1008
sg1250
g1388
sg269
g1046
sbsS'valarray'
p1897
g239
(g1245
g241
Ntp1898
Rp1899
(dp1900
g1249
g1257
sg1250
g1258
sg269
S'c:/marmalade/6.2/s3e/h/std/c++/valarray'
p1901
sbsS'iosfwd'
p1902
g239
(g1245
g241
Ntp1903
Rp1904
(dp1905
g1249
g1257
sg1250
g1258
sg269
S'c:/marmalade/6.2/s3e/h/std/c++/iosfwd'
p1906
sbsS'gl2.h'
p1907
g239
(g1245
g241
Ntp1908
Rp1909
(dp1910
g1249
g1257
sg1250
g1499
sg269
S'c:/marmalade/6.2/s3e/h/GLES2/gl2.h'
p1911
sbsS'IwManagedList.h'
p1912
g239
(g1245
g241
Ntp1913
Rp1914
(dp1915
g1249
g1062
sg1250
g1286
sg269
g1104
sbsS'stdiostream.h'
p1916
g239
(g1245
g241
Ntp1917
Rp1918
(dp1919
g1249
g1257
sg1250
g1258
sg269
S'c:/marmalade/6.2/s3e/h/std/c++/stdiostream.h'
p1920
sbsS'mem.h'
p1921
g239
(g1245
g241
Ntp1922
Rp1923
(dp1924
g1249
g1257
sg1250
g1258
sg269
S'c:/marmalade/6.2/s3e/h/std/c++/mem.h'
p1925
sbsS'main.cpp'
p1926
g239
(g1245
g241
Ntp1927
Rp1928
(dp1929
g1249
g777
sg1250
g1379
sg269
g1220
sbsVzconf.h
p1930
g239
(g1245
g241
Ntp1931
Rp1932
(dp1933
g1249
g848
sg1250
g1782
sg269
g852
sbsS's3e.config.txt'
p1934
g239
(g1245
g241
Ntp1935
Rp1936
(dp1937
g1249
g1257
sg1250
g1273
sg269
S'c:/marmalade/6.2/s3e/s3e.config.txt'
p1938
sbsS'numeric'
p1939
g239
(g1245
g241
Ntp1940
Rp1941
(dp1942
g1249
g1257
sg1250
g1258
sg269
S'c:/marmalade/6.2/s3e/h/std/c++/numeric'
p1943
sbsS'utime.h'
p1944
g239
(g1245
g241
Ntp1945
Rp1946
(dp1947
g1249
g1257
sg1250
g1279
sg269
S'c:/marmalade/6.2/s3e/h/std/utime.h'
p1948
sbsVjdhuff.h
p1949
g239
(g1245
g241
Ntp1950
Rp1951
(dp1952
g1249
g792
sg1250
g1340
sg269
g820
sbsS'IwResHandlerWAV.cpp'
p1953
g239
(g1245
g241
Ntp1954
Rp1955
(dp1956
g1249
g1174
sg1250
g1307
sg269
g1209
sbsS'IwGxStream.h'
p1957
g239
(g1245
g241
Ntp1958
Rp1959
(dp1960
g1249
g1008
sg1250
g1388
sg269
g1050
sbsS'IwImage.h'
p1961
g239
(g1245
g241
Ntp1962
Rp1963
(dp1964
g1249
g1062
sg1250
g1286
sg269
g1077
sbsS's3eImagePicker.h'
p1965
g239
(g1245
g241
Ntp1966
Rp1967
(dp1968
g1249
g1257
sg1250
g1471
sg269
S'c:/marmalade/6.2/s3e/h/ext/s3eImagePicker.h'
p1969
sbsS'stdlib.h'
p1970
g239
(g1245
g241
Ntp1971
Rp1972
(dp1973
g1249
g1257
sg1250
g1279
sg269
S'c:/marmalade/6.2/s3e/h/std/stdlib.h'
p1974
sbsS'IwCopyingPtr.h'
p1975
g239
(g1245
g241
Ntp1976
Rp1977
(dp1978
g1249
g1062
sg1250
g1286
sg269
g1079
sbsS'iostream'
p1979
g239
(g1245
g241
Ntp1980
Rp1981
(dp1982
g1249
g1257
sg1250
g1258
sg269
S'c:/marmalade/6.2/s3e/h/std/c++/iostream'
p1983
sbsVpng.h
p1984
g239
(g1245
g241
Ntp1985
Rp1986
(dp1987
g1249
g782
sg1250
g1797
sg269
g786
sbsS'claws.h'
p1988
g239
(g1245
g241
Ntp1989
Rp1990
(dp1991
g1249
g777
sg1250
g1379
sg269
g1234
sbsS'stddef.h'
p1992
g239
(g1245
g241
Ntp1993
Rp1994
(dp1995
g1249
g1257
sg1250
g1279
sg269
S'c:/marmalade/6.2/s3e/h/std/stddef.h'
p1996
sbsS'setjmp_win32.h'
p1997
g239
(g1245
g241
Ntp1998
Rp1999
(dp2000
g1249
g1257
sg1250
g1279
sg269
S'c:/marmalade/6.2/s3e/h/std/setjmp_win32.h'
p2001
sbsS'IwGxPrint.h'
p2002
g239
(g1245
g241
Ntp2003
Rp2004
(dp2005
g1249
g1008
sg1250
g1388
sg269
g1035
sbsS'Tank.cpp'
p2006
g239
(g1245
g241
Ntp2007
Rp2008
(dp2009
g1249
g777
sg1250
g1379
sg269
g1168
sbsS'streambuf.h'
p2010
g239
(g1245
g241
Ntp2011
Rp2012
(dp2013
g1249
g1257
sg1250
g1258
sg269
S'c:/marmalade/6.2/s3e/h/std/c++/streambuf.h'
p2014
sbsS'IwGeomFPlane.h'
p2015
g239
(g1245
g241
Ntp2016
Rp2017
(dp2018
g1249
g916
sg1250
g1267
sg269
g943
sbsS'wchar.h'
p2019
g239
(g1245
g241
Ntp2020
Rp2021
(dp2022
g1249
g1257
sg1250
g1279
sg269
S'c:/marmalade/6.2/s3e/h/std/wchar.h'
p2023
sbsS's3eCameraCapture.h'
p2024
g239
(g1245
g241
Ntp2025
Rp2026
(dp2027
g1249
g1257
sg1250
g1471
sg269
S'c:/marmalade/6.2/s3e/h/ext/s3eCameraCapture.h'
p2028
sbsS'eglext.h'
p2029
g239
(g1245
g241
Ntp2030
Rp2031
(dp2032
g1249
g1257
sg1250
g1586
sg269
S'c:/marmalade/6.2/s3e/h/EGL/eglext.h'
p2033
sbsS'IwResHandlerImage.h'
p2034
g239
(g1245
g241
Ntp2035
Rp2036
(dp2037
g1249
g984
sg1250
g1507
sg269
g989
sbsS'strstream.h'
p2038
g239
(g1245
g241
Ntp2039
Rp2040
(dp2041
g1249
g1257
sg1250
g1258
sg269
S'c:/marmalade/6.2/s3e/h/std/c++/strstream.h'
p2042
sbsVtiniconv.h
p2043
g239
(g1245
g241
Ntp2044
Rp2045
(dp2046
g1249
g829
sg1250
g1712
sg269
g830
sbsS'IwGLExt.h'
p2047
g239
(g1245
g241
Ntp2048
Rp2049
(dp2050
g1249
g870
sg1250
g1369
sg269
g868
sbsS'app.icf'
p2051
g239
(g1245
g241
Ntp2052
Rp2053
(dp2054
g1249
(dp2055
sg1250
g4
sg269
S'c:/Users/ironwk/Documents/blackberry/juego/agentBaconLalo - V1.3(ariel)/data/app.icf'
p2056
sbsS'IwClassFactory.h'
p2057
g239
(g1245
g241
Ntp2058
Rp2059
(dp2060
g1249
g1062
sg1250
g1286
sg269
g1134
sbsS'file.h'
p2061
g239
(g1245
g241
Ntp2062
Rp2063
(dp2064
g1249
g1257
sg1250
g1402
sg269
S'c:/marmalade/6.2/s3e/h/std/sys/file.h'
p2065
sbsS'cstring'
p2066
g239
(g1245
g241
Ntp2067
Rp2068
(dp2069
g1249
g1257
sg1250
g1258
sg269
S'c:/marmalade/6.2/s3e/h/std/c++/cstring'
p2070
sbsS'IwSoundInst.cpp'
p2071
g239
(g1245
g241
Ntp2072
Rp2073
(dp2074
g1249
g1174
sg1250
g1307
sg269
g1191
sbsS'iwutil.config.txt'
p2075
g239
(g1245
g241
Ntp2076
Rp2077
(dp2078
g1249
g1062
sg1250
g1286
sg269
g1067
sbsS's3eSMS.h'
p2079
g239
(g1245
g241
Ntp2080
Rp2081
(dp2082
g1249
g1257
sg1250
g1471
sg269
S'c:/marmalade/6.2/s3e/h/ext/s3eSMS.h'
p2083
sbsS'limits.h'
p2084
g239
(g1245
g241
Ntp2085
Rp2086
(dp2087
g1249
g1257
sg1250
g1279
sg269
S'c:/marmalade/6.2/s3e/h/std/limits.h'
p2088
sbsS'iwgl.config.txt'
p2089
g239
(g1245
g241
Ntp2090
Rp2091
(dp2092
g1249
g870
sg1250
g1369
sg269
g871
sbsS'iwgx_public.defines.txt'
p2093
g239
(g1245
g241
Ntp2094
Rp2095
(dp2096
g1249
g1008
sg1250
g1388
sg269
g1015
sbsS'IwMaterial.h'
p2097
g239
(g1245
g241
Ntp2098
Rp2099
(dp2100
g1249
g1008
sg1250
g1388
sg269
g1033
sbsS'IwGxSurface.h'
p2101
g239
(g1245
g241
Ntp2102
Rp2103
(dp2104
g1249
g1008
sg1250
g1388
sg269
g1044
sbsS's3eSocket.h'
p2105
g239
(g1245
g241
Ntp2106
Rp2107
(dp2108
g1249
g1257
sg1250
g1273
sg269
S'c:/marmalade/6.2/s3e/h/s3eSocket.h'
p2109
sbsS'IwAutoFile.h'
p2110
g239
(g1245
g241
Ntp2111
Rp2112
(dp2113
g1249
g1062
sg1250
g1286
sg269
g1136
sbsS'ipc.h'
p2114
g239
(g1245
g241
Ntp2115
Rp2116
(dp2117
g1249
g1257
sg1250
g1402
sg269
S'c:/marmalade/6.2/s3e/h/std/sys/ipc.h'
p2118
sbsS'poll_1.h'
p2119
g239
(g1245
g241
Ntp2120
Rp2121
(dp2122
g1249
g1257
sg1250
g1402
sg269
S'c:/marmalade/6.2/s3e/h/std/sys/poll.h'
p2123
sbsS's3eThread.h'
p2124
g239
(g1245
g241
Ntp2125
Rp2126
(dp2127
g1249
g1257
sg1250
g1273
sg269
S'c:/marmalade/6.2/s3e/h/s3eThread.h'
p2128
sbsS'ucontext.h'
p2129
g239
(g1245
g241
Ntp2130
Rp2131
(dp2132
g1249
g1257
sg1250
g1279
sg269
S'c:/marmalade/6.2/s3e/h/std/ucontext.h'
p2133
sbsS'time.h'
p2134
g239
(g1245
g241
Ntp2135
Rp2136
(dp2137
g1249
g1257
sg1250
g1279
sg269
S'c:/marmalade/6.2/s3e/h/std/time.h'
p2138
sbsVjchuff.h
p2139
g239
(g1245
g241
Ntp2140
Rp2141
(dp2142
g1249
g792
sg1250
g1340
sg269
g816
sbsS'IwSoundPCM.cpp'
p2143
g239
(g1245
g241
Ntp2144
Rp2145
(dp2146
g1249
g1174
sg1250
g1307
sg269
g1203
sbsS's3eSoundRecord.h'
p2147
g239
(g1245
g241
Ntp2148
Rp2149
(dp2150
g1249
g1257
sg1250
g1273
sg269
S'c:/marmalade/6.2/s3e/h/s3eSoundRecord.h'
p2151
sbsS'IwFibre.h'
p2152
g239
(g1245
g241
Ntp2153
Rp2154
(dp2155
g1249
g1062
sg1250
g1286
sg269
g1160
sbsS'Chuletas.h'
p2156
g239
(g1245
g241
Ntp2157
Rp2158
(dp2159
g1249
g777
sg1250
g1379
sg269
g860
sbsS's3eVersion.h'
p2160
g239
(g1245
g241
Ntp2161
Rp2162
(dp2163
g1249
g1257
sg1250
g1273
sg269
S'c:/marmalade/6.2/s3e/h/s3eVersion.h'
p2164
sbsS'IwSoundGroup.h'
p2165
g239
(g1245
g241
Ntp2166
Rp2167
(dp2168
g1249
g1174
sg1250
g1307
sg269
g1189
sbsS'IwGxFontGlyph.h'
p2169
g239
(g1245
g241
Ntp2170
Rp2171
(dp2172
g1249
g894
sg1250
g1251
sg269
g900
sbsS's3eTypes.h'
p2173
g239
(g1245
g241
Ntp2174
Rp2175
(dp2176
g1249
g1257
sg1250
g1273
sg269
S'c:/marmalade/6.2/s3e/h/s3eTypes.h'
p2177
sbsS'IwSoundSpec.h'
p2178
g239
(g1245
g241
Ntp2179
Rp2180
(dp2181
g1249
g1174
sg1250
g1307
sg269
g1177
sbsS'signal_2.h'
p2182
g239
(g1245
g241
Ntp2183
Rp2184
(dp2185
g1249
g1257
sg1250
g1258
sg269
S'c:/marmalade/6.2/s3e/h/std/c++/signal.h'
p2186
sbsS'termios.h'
p2187
g239
(g1245
g241
Ntp2188
Rp2189
(dp2190
g1249
g1257
sg1250
g1279
sg269
S'c:/marmalade/6.2/s3e/h/std/termios.h'
p2191
sbsS'slist'
p2192
g239
(g1245
g241
Ntp2193
Rp2194
(dp2195
g1249
g1257
sg1250
g1258
sg269
S'c:/marmalade/6.2/s3e/h/std/c++/slist'
p2196
sbsS'Coin.h'
p2197
g239
(g1245
g241
Ntp2198
Rp2199
(dp2200
g1249
g777
sg1250
g1379
sg269
g832
sbsS'cstdlib'
p2201
g239
(g1245
g241
Ntp2202
Rp2203
(dp2204
g1249
g1257
sg1250
g1258
sg269
S'c:/marmalade/6.2/s3e/h/std/c++/cstdlib'
p2205
sbsS's3eLocation.h'
p2206
g239
(g1245
g241
Ntp2207
Rp2208
(dp2209
g1249
g1257
sg1250
g1273
sg269
S'c:/marmalade/6.2/s3e/h/s3eLocation.h'
p2210
sbsS'IwMemBucketHelpers.h'
p2211
g239
(g1245
g241
Ntp2212
Rp2213
(dp2214
g1249
g1062
sg1250
g1286
sg269
g1142
sbsS's3eHash.h'
p2215
g239
(g1245
g241
Ntp2216
Rp2217
(dp2218
g1249
g1257
sg1250
g1273
sg269
S'c:/marmalade/6.2/s3e/h/s3eHash.h'
p2219
sbsS'IwSoundGroup.cpp'
p2220
g239
(g1245
g241
Ntp2221
Rp2222
(dp2223
g1249
g1174
sg1250
g1307
sg269
g1181
sbsS'IwGeomFMat.h'
p2224
g239
(g1245
g241
Ntp2225
Rp2226
(dp2227
g1249
g916
sg1250
g1267
sg269
g966
sbsS'type_traits.h'
p2228
g239
(g1245
g241
Ntp2229
Rp2230
(dp2231
g1249
g1257
sg1250
g1258
sg269
S'c:/marmalade/6.2/s3e/h/std/c++/type_traits.h'
p2232
sbsS'IwMenu.h'
p2233
g239
(g1245
g241
Ntp2234
Rp2235
(dp2236
g1249
g1062
sg1250
g1286
sg269
g1106
sbsS'IwResHandlerITX.h'
p2237
g239
(g1245
g241
Ntp2238
Rp2239
(dp2240
g1249
g984
sg1250
g1507
sg269
g1002
sbsS'IwSoundData.h'
p2241
g239
(g1245
g241
Ntp2242
Rp2243
(dp2244
g1249
g1174
sg1250
g1307
sg269
g1205
sbsS'IwArray.h'
p2245
g239
(g1245
g241
Ntp2246
Rp2247
(dp2248
g1249
g1062
sg1250
g1286
sg269
g1108
sbsS'IwUTF8.h'
p2249
g239
(g1245
g241
Ntp2250
Rp2251
(dp2252
g1249
g1062
sg1250
g1286
sg269
g1120
sbsS'math_rvct.h'
p2253
g239
(g1245
g241
Ntp2254
Rp2255
(dp2256
g1249
g1257
sg1250
g1279
sg269
S'c:/marmalade/6.2/s3e/h/std/math_rvct.h'
p2257
sbsS'IwUtil.h'
p2258
g239
(g1245
g241
Ntp2259
Rp2260
(dp2261
g1249
g1062
sg1250
g1286
sg269
g1102
sbsS'IwGeomVec3.h'
p2262
g239
(g1245
g241
Ntp2263
Rp2264
(dp2265
g1249
g916
sg1250
g1267
sg269
g978
sbsS'wctype.h'
p2266
g239
(g1245
g241
Ntp2267
Rp2268
(dp2269
g1249
g1257
sg1250
g1279
sg269
S'c:/marmalade/6.2/s3e/h/std/wctype.h'
p2270
sbsS'cstddef'
p2271
g239
(g1245
g241
Ntp2272
Rp2273
(dp2274
g1249
g1257
sg1250
g1258
sg269
S'c:/marmalade/6.2/s3e/h/std/c++/cstddef'
p2275
sbsS'assert.h'
p2276
g239
(g1245
g241
Ntp2277
Rp2278
(dp2279
g1249
g1257
sg1250
g1279
sg269
S'c:/marmalade/6.2/s3e/h/std/assert.h'
p2280
sbsS'mman.h'
p2281
g239
(g1245
g241
Ntp2282
Rp2283
(dp2284
g1249
g1257
sg1250
g1402
sg269
S'c:/marmalade/6.2/s3e/h/std/sys/mman.h'
p2285
sbsS'IwRandom.h'
p2286
g239
(g1245
g241
Ntp2287
Rp2288
(dp2289
g1249
g1062
sg1250
g1286
sg269
g1096
sbsS'libgen.h'
p2290
g239
(g1245
g241
Ntp2291
Rp2292
(dp2293
g1249
g1257
sg1250
g1279
sg269
S'c:/marmalade/6.2/s3e/h/std/libgen.h'
p2294
sbsS'utsname.h'
p2295
g239
(g1245
g241
Ntp2296
Rp2297
(dp2298
g1249
g1257
sg1250
g1402
sg269
S'c:/marmalade/6.2/s3e/h/std/sys/utsname.h'
p2299
sbsS'wait.h'
p2300
g239
(g1245
g241
Ntp2301
Rp2302
(dp2303
g1249
g1257
sg1250
g1402
sg269
S'c:/marmalade/6.2/s3e/h/std/sys/wait.h'
p2304
sbsS'Tnt.cpp'
p2305
g239
(g1245
g241
Ntp2306
Rp2307
(dp2308
g1249
g777
sg1250
g1379
sg269
g1166
sbsS'param.h'
p2309
g239
(g1245
g241
Ntp2310
Rp2311
(dp2312
g1249
g1257
sg1250
g1402
sg269
S'c:/marmalade/6.2/s3e/h/std/sys/param.h'
p2313
sbsS'IwDivide.h'
p2314
g239
(g1245
g241
Ntp2315
Rp2316
(dp2317
g1249
g1062
sg1250
g1286
sg269
g1148
sbsS'IwResManager.h'
p2318
g239
(g1245
g241
Ntp2319
Rp2320
(dp2321
g1249
g984
sg1250
g1507
sg269
g1000
sbsS'IwSoundManager.h'
p2322
g239
(g1245
g241
Ntp2323
Rp2324
(dp2325
g1249
g1174
sg1250
g1307
sg269
g1195
sbsS'cwctype'
p2326
g239
(g1245
g241
Ntp2327
Rp2328
(dp2329
g1249
g1257
sg1250
g1258
sg269
S'c:/marmalade/6.2/s3e/h/std/c++/cwctype'
p2330
sbsS'set'
p2331
g239
(g1245
g241
Ntp2332
Rp2333
(dp2334
g1249
g1257
sg1250
g1258
sg269
S'c:/marmalade/6.2/s3e/h/std/c++/set'
p2335
sbsS'IwGeomSQuat.h'
p2336
g239
(g1245
g241
Ntp2337
Rp2338
(dp2339
g1249
g916
sg1250
g1267
sg269
g947
sbsS'locale'
p2340
g239
(g1245
g241
Ntp2341
Rp2342
(dp2343
g1249
g1257
sg1250
g1258
sg269
S'c:/marmalade/6.2/s3e/h/std/c++/locale'
p2344
sbsS'cstdio'
p2345
g239
(g1245
g241
Ntp2346
Rp2347
(dp2348
g1249
g1257
sg1250
g1258
sg269
S'c:/marmalade/6.2/s3e/h/std/c++/cstdio'
p2349
sbsVcdjpeg.h
p2350
g239
(g1245
g241
Ntp2351
Rp2352
(dp2353
g1249
g792
sg1250
g1340
sg269
g805
sbsS'IwList.h'
p2354
g239
(g1245
g241
Ntp2355
Rp2356
(dp2357
g1249
g1062
sg1250
g1286
sg269
g1128
sbsS'stack'
p2358
g239
(g1245
g241
Ntp2359
Rp2360
(dp2361
g1249
g1257
sg1250
g1258
sg269
S'c:/marmalade/6.2/s3e/h/std/c++/stack'
p2362
sbsS'inttypes.h'
p2363
g239
(g1245
g241
Ntp2364
Rp2365
(dp2366
g1249
g1257
sg1250
g1279
sg269
S'c:/marmalade/6.2/s3e/h/std/inttypes.h'
p2367
sbsS'dirent.h'
p2368
g239
(g1245
g241
Ntp2369
Rp2370
(dp2371
g1249
g1257
sg1250
g1279
sg269
S'c:/marmalade/6.2/s3e/h/std/dirent.h'
p2372
sbsS'IwFColour.h'
p2373
g239
(g1245
g241
Ntp2374
Rp2375
(dp2376
g1249
g1008
sg1250
g1388
sg269
g1027
sbsS'Menu.cpp'
p2377
g239
(g1245
g241
Ntp2378
Rp2379
(dp2380
g1249
g777
sg1250
g1379
sg269
g862
sbsVtransupp.h
p2381
g239
(g1245
g241
Ntp2382
Rp2383
(dp2384
g1249
g792
sg1250
g1340
sg269
g797
sbsS'IwMath.h'
p2385
g239
(g1245
g241
Ntp2386
Rp2387
(dp2388
g1249
g1062
sg1250
g1286
sg269
g1085
sbsS'IwGeomQuat.h'
p2389
g239
(g1245
g241
Ntp2390
Rp2391
(dp2392
g1249
g916
sg1250
g1267
sg269
g952
sbsS'glplatform.h'
p2393
g239
(g1245
g241
Ntp2394
Rp2395
(dp2396
g1249
g1257
sg1250
g1825
sg269
S'c:/marmalade/6.2/s3e/h/GLES/glplatform.h'
p2397
sbsS'bitset'
p2398
g239
(g1245
g241
Ntp2399
Rp2400
(dp2401
g1249
g1257
sg1250
g1258
sg269
S'c:/marmalade/6.2/s3e/h/std/c++/bitset'
p2402
sbsS'alloca.h'
p2403
g239
(g1245
g241
Ntp2404
Rp2405
(dp2406
g1249
g1257
sg1250
g1279
sg269
S'c:/marmalade/6.2/s3e/h/std/alloca.h'
p2407
sbsS'IwResHandler.h'
p2408
g239
(g1245
g241
Ntp2409
Rp2410
(dp2411
g1249
g984
sg1250
g1507
sg269
g993
sbsS'IwResHandlerMTL.h'
p2412
g239
(g1245
g241
Ntp2413
Rp2414
(dp2415
g1249
g1008
sg1250
g1388
sg269
g1019
sbsS'IwRuntime.h'
p2416
g239
(g1245
g241
Ntp2417
Rp2418
(dp2419
g1249
g1062
sg1250
g1286
sg269
g1122
sbsS'limits'
p2420
g239
(g1245
g241
Ntp2421
Rp2422
(dp2423
g1249
g1257
sg1250
g1258
sg269
S'c:/marmalade/6.2/s3e/h/std/c++/limits'
p2424
sbsS'IwGeomBBox.h'
p2425
g239
(g1245
g241
Ntp2426
Rp2427
(dp2428
g1249
g916
sg1250
g1267
sg269
g939
sbsS's3eContacts.h'
p2429
g239
(g1245
g241
Ntp2430
Rp2431
(dp2432
g1249
g1257
sg1250
g1273
sg269
S'c:/marmalade/6.2/s3e/h/s3eContacts.h'
p2433
sbsS's3eLicense.h'
p2434
g239
(g1245
g241
Ntp2435
Rp2436
(dp2437
g1249
g1257
sg1250
g1273
sg269
S'c:/marmalade/6.2/s3e/h/s3eLicense.h'
p2438
sbsS'iwgx.config.txt'
p2439
g239
(g1245
g241
Ntp2440
Rp2441
(dp2442
g1249
g1008
sg1250
g1388
sg269
g1021
sbsS'IwTextParser.h'
p2443
g239
(g1245
g241
Ntp2444
Rp2445
(dp2446
g1249
g1062
sg1250
g1286
sg269
g1144
sbsS's3eTimer.h'
p2447
g239
(g1245
g241
Ntp2448
Rp2449
(dp2450
g1249
g1257
sg1250
g1273
sg269
S'c:/marmalade/6.2/s3e/h/s3eTimer.h'
p2451
sbsS'IwGeomVec.h'
p2452
g239
(g1245
g241
Ntp2453
Rp2454
(dp2455
g1249
g916
sg1250
g1267
sg269
g976
sbsS'IwSerialise.h'
p2456
g239
(g1245
g241
Ntp2457
Rp2458
(dp2459
g1249
g1062
sg1250
g1286
sg269
g1073
sbsS'cstdarg'
p2460
g239
(g1245
g241
Ntp2461
Rp2462
(dp2463
g1249
g1257
sg1250
g1258
sg269
S'c:/marmalade/6.2/s3e/h/std/c++/cstdarg'
p2464
sbsS'gl2ext.h'
p2465
g239
(g1245
g241
Ntp2466
Rp2467
(dp2468
g1249
g1257
sg1250
g1499
sg269
S'c:/marmalade/6.2/s3e/h/GLES2/gl2ext.h'
p2469
sbsS'IwChar.h'
p2470
g239
(g1245
g241
Ntp2471
Rp2472
(dp2473
g1249
g1062
sg1250
g1286
sg269
g1158
sbsS's3eSound.h'
p2474
g239
(g1245
g241
Ntp2475
Rp2476
(dp2477
g1249
g1257
sg1250
g1273
sg269
S'c:/marmalade/6.2/s3e/h/s3eSound.h'
p2478
sbsS's3eIOSBackgroundAudio.h'
p2479
g239
(g1245
g241
Ntp2480
Rp2481
(dp2482
g1249
g1257
sg1250
g1471
sg269
S'c:/marmalade/6.2/s3e/h/ext/s3eIOSBackgroundAudio.h'
p2483
sbsS'exception.h'
p2484
g239
(g1245
g241
Ntp2485
Rp2486
(dp2487
g1249
g1257
sg1250
g1258
sg269
S'c:/marmalade/6.2/s3e/h/std/c++/exception.h'
p2488
sbsS'iwgeom.config.txt'
p2489
g239
(g1245
g241
Ntp2490
Rp2491
(dp2492
g1249
g916
sg1250
g1267
sg269
g945
sbsS'iwgx.mkf'
p2493
g239
(g1245
g241
Ntp2494
Rp2495
(dp2496
g1249
g1041
sg1250
g1388
sg269
g1039
sbsS'Font.cpp'
p2497
g239
(g1245
g241
Ntp2498
Rp2499
(dp2500
g1249
g777
sg1250
g1379
sg269
g1230
sbsS'gl.h'
p2501
g239
(g1245
g241
Ntp2502
Rp2503
(dp2504
g1249
g1257
sg1250
g1825
sg269
S'c:/marmalade/6.2/s3e/h/GLES/gl.h'
p2505
sbsVzlib.h
p2506
g239
(g1245
g241
Ntp2507
Rp2508
(dp2509
g1249
g848
sg1250
g1782
sg269
g846
sbsS'iwgl.mkf'
p2510
g239
(g1245
g241
Ntp2511
Rp2512
(dp2513
g1249
g877
sg1250
g1369
sg269
g875
sbsS'IwColour.h'
p2514
g239
(g1245
g241
Ntp2515
Rp2516
(dp2517
g1249
g1008
sg1250
g1388
sg269
g1031
sbsS's3eLibrary.h'
p2518
g239
(g1245
g241
Ntp2519
Rp2520
(dp2521
g1249
g1257
sg1250
g1471
sg269
S'c:/marmalade/6.2/s3e/h/ext/s3eLibrary.h'
p2522
sbsS'types.h'
p2523
g239
(g1245
g241
Ntp2524
Rp2525
(dp2526
g1249
g1257
sg1250
g1402
sg269
S'c:/marmalade/6.2/s3e/h/std/sys/types.h'
p2527
sbsS'ifaddrs.h'
p2528
g239
(g1245
g241
Ntp2529
Rp2530
(dp2531
g1249
g1257
sg1250
g1279
sg269
S'c:/marmalade/6.2/s3e/h/std/ifaddrs.h'
p2532
sbsS'strstream'
p2533
g239
(g1245
g241
Ntp2534
Rp2535
(dp2536
g1249
g1257
sg1250
g1258
sg269
S'c:/marmalade/6.2/s3e/h/std/c++/strstream'
p2537
sbsS'exception'
p2538
g239
(g1245
g241
Ntp2539
Rp2540
(dp2541
g1249
g1257
sg1250
g1258
sg269
S'c:/marmalade/6.2/s3e/h/std/c++/exception'
p2542
sbsS'MiniCoin.h'
p2543
g239
(g1245
g241
Ntp2544
Rp2545
(dp2546
g1249
g777
sg1250
g1379
sg269
g836
sbsS'rlocks.h'
p2547
g239
(g1245
g241
Ntp2548
Rp2549
(dp2550
g1249
g1257
sg1250
g1258
sg269
S'c:/marmalade/6.2/s3e/h/std/c++/rlocks.h'
p2551
sbsS'ioctl.h'
p2552
g239
(g1245
g241
Ntp2553
Rp2554
(dp2555
g1249
g1257
sg1250
g1402
sg269
S'c:/marmalade/6.2/s3e/h/std/sys/ioctl.h'
p2556
sbsS'rope'
p2557
g239
(g1245
g241
Ntp2558
Rp2559
(dp2560
g1249
g1257
sg1250
g1258
sg269
S'c:/marmalade/6.2/s3e/h/std/c++/rope'
p2561
sbsVjinclude.h
p2562
g239
(g1245
g241
Ntp2563
Rp2564
(dp2565
g1249
g792
sg1250
g1340
sg269
g795
sbsS'IwEvent.h'
p2566
g239
(g1245
g241
Ntp2567
Rp2568
(dp2569
g1249
g1062
sg1250
g1286
sg269
g1156
sbsS'IwOptimiseSize.h'
p2570
g239
(g1245
g241
Ntp2571
Rp2572
(dp2573
g1249
g1062
sg1250
g1286
sg269
g1110
sbsS'iwgxfont_public.defines.txt'
p2574
g239
(g1245
g241
Ntp2575
Rp2576
(dp2577
g1249
g894
sg1250
g1251
sg269
g892
sbsS'iconv.h'
p2578
g239
(g1245
g241
Ntp2579
Rp2580
(dp2581
g1249
g1257
sg1250
g1279
sg269
S'c:/marmalade/6.2/s3e/h/std/iconv.h'
p2582
sbsS'sendfile.h'
p2583
g239
(g1245
g241
Ntp2584
Rp2585
(dp2586
g1249
g1257
sg1250
g1402
sg269
S'c:/marmalade/6.2/s3e/h/std/sys/sendfile.h'
p2587
sbsS'IwGeomSphere.h'
p2588
g239
(g1245
g241
Ntp2589
Rp2590
(dp2591
g1249
g916
sg1250
g1267
sg269
g962
sbsVtiniconv.mkf
p2592
g239
(g1245
g241
Ntp2593
Rp2594
(dp2595
g1249
g826
sg1250
g1712
sg269
g824
sbsVjdct.h
p2596
g239
(g1245
g241
Ntp2597
Rp2598
(dp2599
g1249
g792
sg1250
g1340
sg269
g818
sbsS'cctype'
p2600
g239
(g1245
g241
Ntp2601
Rp2602
(dp2603
g1249
g1257
sg1250
g1258
sg269
S'c:/marmalade/6.2/s3e/h/std/c++/cctype'
p2604
sbsS'IwSoundADPCM.cpp'
p2605
g239
(g1245
g241
Ntp2606
Rp2607
(dp2608
g1249
g1174
sg1250
g1307
sg269
g1193
sbsS's3eConfig.h'
p2609
g239
(g1245
g241
Ntp2610
Rp2611
(dp2612
g1249
g1257
sg1250
g1273
sg269
S'c:/marmalade/6.2/s3e/h/s3eConfig.h'
p2613
sbsS'Font.h'
p2614
g239
(g1245
g241
Ntp2615
Rp2616
(dp2617
g1249
g777
sg1250
g1379
sg269
g1238
sbsS'stat.h'
p2618
g239
(g1245
g241
Ntp2619
Rp2620
(dp2621
g1249
g1257
sg1250
g1402
sg269
S'c:/marmalade/6.2/s3e/h/std/sys/stat.h'
p2622
sbsS'byteswap.h'
p2623
g239
(g1245
g241
Ntp2624
Rp2625
(dp2626
g1249
g1257
sg1250
g1279
sg269
S'c:/marmalade/6.2/s3e/h/std/byteswap.h'
p2627
sbsS'iwresmanager.mkf'
p2628
g239
(g1245
g241
Ntp2629
Rp2630
(dp2631
g1249
g997
sg1250
g1507
sg269
g995
sbsS'sprites.h'
p2632
g239
(g1245
g241
Ntp2633
Rp2634
(dp2635
g1249
g777
sg1250
g1379
sg269
g1222
sbsS'IwUtilInitTerm.h'
p2636
g239
(g1245
g241
Ntp2637
Rp2638
(dp2639
g1249
g1062
sg1250
g1286
sg269
g1081
sbsS'pthread_1.h'
p2640
g239
(g1245
g241
Ntp2641
Rp2642
(dp2643
g1249
g1257
sg1250
g1258
sg269
S'c:/marmalade/6.2/s3e/h/std/c++/pthread.h'
p2644
sbsS'IwMemBucket.h'
p2645
g239
(g1245
g241
Ntp2646
Rp2647
(dp2648
g1249
g1062
sg1250
g1286
sg269
g1118
sbsS'complex'
p2649
g239
(g1245
g241
Ntp2650
Rp2651
(dp2652
g1249
g1257
sg1250
g1258
sg269
S'c:/marmalade/6.2/s3e/h/std/c++/complex'
p2653
sbsS'algorithm'
p2654
g239
(g1245
g241
Ntp2655
Rp2656
(dp2657
g1249
g1257
sg1250
g1258
sg269
S'c:/marmalade/6.2/s3e/h/std/c++/algorithm'
p2658
sbsS's3e.icf'
p2659
g239
(g1245
g241
Ntp2660
Rp2661
(dp2662
g1249
g1257
sg1250
g1273
sg269
S'c:/marmalade/6.2/s3e/s3e.icf'
p2663
sbsS'sem.h'
p2664
g239
(g1245
g241
Ntp2665
Rp2666
(dp2667
g1249
g1257
sg1250
g1402
sg269
S'c:/marmalade/6.2/s3e/h/std/sys/sem.h'
p2668
sbsS'IwGxFontState.h'
p2669
g239
(g1245
g241
Ntp2670
Rp2671
(dp2672
g1249
g894
sg1250
g1251
sg269
g898
sbsS'stdio.h'
p2673
g239
(g1245
g241
Ntp2674
Rp2675
(dp2676
g1249
g1257
sg1250
g1279
sg269
S'c:/marmalade/6.2/s3e/h/std/stdio.h'
p2677
sbsVjmemsys.h
p2678
g239
(g1245
g241
Ntp2679
Rp2680
(dp2681
g1249
g792
sg1250
g1340
sg269
g814
sbsS'ios'
p2682
g239
(g1245
g241
Ntp2683
Rp2684
(dp2685
g1249
g1257
sg1250
g1258
sg269
S'c:/marmalade/6.2/s3e/h/std/c++/ios'
p2686
sbsS'ios.h'
p2687
g239
(g1245
g241
Ntp2688
Rp2689
(dp2690
g1249
g1257
sg1250
g1258
sg269
S'c:/marmalade/6.2/s3e/h/std/c++/ios.h'
p2691
sbsS'Iw2D.h'
p2692
g239
(g1245
g241
Ntp2693
Rp2694
(dp2695
g1249
g882
sg1250
g1345
sg269
g880
sbsS'corazones.h'
p2696
g239
(g1245
g241
Ntp2697
Rp2698
(dp2699
g1249
g777
sg1250
g1379
sg269
g834
sbsS'IwSoundParams.h'
p2700
g239
(g1245
g241
Ntp2701
Rp2702
(dp2703
g1249
g1174
sg1250
g1307
sg269
g1179
sbsS'new.h'
p2704
g239
(g1245
g241
Ntp2705
Rp2706
(dp2707
g1249
g1257
sg1250
g1258
sg269
S'c:/marmalade/6.2/s3e/h/std/c++/new.h'
p2708
sbsS's3eEMail.h'
p2709
g239
(g1245
g241
Ntp2710
Rp2711
(dp2712
g1249
g1257
sg1250
g1471
sg269
S'c:/marmalade/6.2/s3e/h/ext/s3eEMail.h'
p2713
sbsS's3eVideo.h'
p2714
g239
(g1245
g241
Ntp2715
Rp2716
(dp2717
g1249
g1257
sg1250
g1273
sg269
S'c:/marmalade/6.2/s3e/h/s3eVideo.h'
p2718
sbsS'IwFile.h'
p2719
g239
(g1245
g241
Ntp2720
Rp2721
(dp2722
g1249
g1062
sg1250
g1286
sg269
g1065
sbsS'pwd.h'
p2723
g239
(g1245
g241
Ntp2724
Rp2725
(dp2726
g1249
g1257
sg1250
g1279
sg269
S'c:/marmalade/6.2/s3e/h/std/pwd.h'
p2727
sbsS'IwOptimiseThumb.h'
p2728
g239
(g1245
g241
Ntp2729
Rp2730
(dp2731
g1249
g1062
sg1250
g1286
sg269
g1126
sbsS'LifeStatus.cpp'
p2732
g239
(g1245
g241
Ntp2733
Rp2734
(dp2735
g1249
g777
sg1250
g1379
sg269
g1162
sbsS'IwClip.h'
p2736
g239
(g1245
g241
Ntp2737
Rp2738
(dp2739
g1249
g1008
sg1250
g1388
sg269
g1054
sbsS'IwSoundInst.h'
p2740
g239
(g1245
g241
Ntp2741
Rp2742
(dp2743
g1249
g1174
sg1250
g1307
sg269
g1199
sbsS'iwresmanager.config.txt'
p2744
g239
(g1245
g241
Ntp2745
Rp2746
(dp2747
g1249
g984
sg1250
g1507
sg269
g991
sbsS'IwGxShaderTechnique.h'
p2748
g239
(g1245
g241
Ntp2749
Rp2750
(dp2751
g1249
g1008
sg1250
g1388
sg269
g1048
sbsS'IwCore.h'
p2752
g239
(g1245
g241
Ntp2753
Rp2754
(dp2755
g1249
g1062
sg1250
g1286
sg269
g1069
sbsS'cfloat'
p2756
g239
(g1245
g241
Ntp2757
Rp2758
(dp2759
g1249
g1257
sg1250
g1258
sg269
S'c:/marmalade/6.2/s3e/h/std/c++/cfloat'
p2760
sbsS'IwGeomMat2D.h'
p2761
g239
(g1245
g241
Ntp2762
Rp2763
(dp2764
g1249
g916
sg1250
g1267
sg269
g954
sbsS'IwAllocator.h'
p2765
g239
(g1245
g241
Ntp2766
Rp2767
(dp2768
g1249
g1062
sg1250
g1286
sg269
g1138
sbsS'IwPath.h'
p2769
g239
(g1245
g241
Ntp2770
Rp2771
(dp2772
g1249
g1062
sg1250
g1286
sg269
g1075
sbsS'iwgxfont.mkf'
p2773
g239
(g1245
g241
Ntp2774
Rp2775
(dp2776
g1249
g897
sg1250
g1251
sg269
g895
sbsS'IwTexture.h'
p2777
g239
(g1245
g241
Ntp2778
Rp2779
(dp2780
g1249
g1008
sg1250
g1388
sg269
g1025
sbsS's3eAccelerometer.h'
p2781
g239
(g1245
g241
Ntp2782
Rp2783
(dp2784
g1249
g1257
sg1250
g1273
sg269
S'c:/marmalade/6.2/s3e/h/s3eAccelerometer.h'
p2785
sbsS'setjmp.h'
p2786
g239
(g1245
g241
Ntp2787
Rp2788
(dp2789
g1249
g1257
sg1250
g1279
sg269
S'c:/marmalade/6.2/s3e/h/std/setjmp.h'
p2790
sbsS'IwSoundParams.cpp'
p2791
g239
(g1245
g241
Ntp2792
Rp2793
(dp2794
g1249
g1174
sg1250
g1307
sg269
g1207
sbsVpngconf.h
p2795
g239
(g1245
g241
Ntp2796
Rp2797
(dp2798
g1249
g782
sg1250
g1797
sg269
g780
sbsS'IwTextParseable.h'
p2799
g239
(g1245
g241
Ntp2800
Rp2801
(dp2802
g1249
g1062
sg1250
g1286
sg269
g1146
sbsS'istream.h'
p2803
g239
(g1245
g241
Ntp2804
Rp2805
(dp2806
g1249
g1257
sg1250
g1258
sg269
S'c:/marmalade/6.2/s3e/h/std/c++/istream.h'
p2807
sbsS'stdint.h'
p2808
g239
(g1245
g241
Ntp2809
Rp2810
(dp2811
g1249
g1257
sg1250
g1279
sg269
S'c:/marmalade/6.2/s3e/h/std/stdint.h'
p2812
sbsS'semaphore.h'
p2813
g239
(g1245
g241
Ntp2814
Rp2815
(dp2816
g1249
g1257
sg1250
g1279
sg269
S'c:/marmalade/6.2/s3e/h/std/semaphore.h'
p2817
sbsS'ctime'
p2818
g239
(g1245
g241
Ntp2819
Rp2820
(dp2821
g1249
g1257
sg1250
g1258
sg269
S'c:/marmalade/6.2/s3e/h/std/c++/ctime'
p2822
sbsS'sstream'
p2823
g239
(g1245
g241
Ntp2824
Rp2825
(dp2826
g1249
g1257
sg1250
g1258
sg269
S'c:/marmalade/6.2/s3e/h/std/c++/sstream'
p2827
sbsS'Coin.cpp'
p2828
g239
(g1245
g241
Ntp2829
Rp2830
(dp2831
g1249
g777
sg1250
g1379
sg269
g840
sbsS'IwGeomFBBox.h'
p2832
g239
(g1245
g241
Ntp2833
Rp2834
(dp2835
g1249
g916
sg1250
g1267
sg269
g927
sbsS'IwDebugPrim.h'
p2836
g239
(g1245
g241
Ntp2837
Rp2838
(dp2839
g1249
g1008
sg1250
g1388
sg269
g1017
sbsS'IwGxFontContainer.h'
p2840
g239
(g1245
g241
Ntp2841
Rp2842
(dp2843
g1249
g894
sg1250
g1251
sg269
g904
sbsS'IwGeomSVec3.h'
p2844
g239
(g1245
g241
Ntp2845
Rp2846
(dp2847
g1249
g916
sg1250
g1267
sg269
g958
sbsS's3eExt.h'
p2848
g239
(g1245
g241
Ntp2849
Rp2850
(dp2851
g1249
g1257
sg1250
g1273
sg269
S'c:/marmalade/6.2/s3e/h/s3eExt.h'
p2852
sbsS'IwGeomFVec3.h'
p2853
g239
(g1245
g241
Ntp2854
Rp2855
(dp2856
g1249
g916
sg1250
g1267
sg269
g917
sbsS'streambuf'
p2857
g239
(g1245
g241
Ntp2858
Rp2859
(dp2860
g1249
g1257
sg1250
g1258
sg269
S'c:/marmalade/6.2/s3e/h/std/c++/streambuf'
p2861
sbsS's3eMetrics.h'
p2862
g239
(g1245
g241
Ntp2863
Rp2864
(dp2865
g1249
g1257
sg1250
g1471
sg269
S'c:/marmalade/6.2/s3e/h/ext/s3eMetrics.h'
p2866
sbsS'IwGxFont.h'
p2867
g239
(g1245
g241
Ntp2868
Rp2869
(dp2870
g1249
g894
sg1250
g1251
sg269
g910
sbsS's3eSecureStorage.h'
p2871
g239
(g1245
g241
Ntp2872
Rp2873
(dp2874
g1249
g1257
sg1250
g1273
sg269
S'c:/marmalade/6.2/s3e/h/s3eSecureStorage.h'
p2875
sbsS'string.h'
p2876
g239
(g1245
g241
Ntp2877
Rp2878
(dp2879
g1249
g1257
sg1250
g1279
sg269
S'c:/marmalade/6.2/s3e/h/std/string.h'
p2880
sbsS'IwResource.h'
p2881
g239
(g1245
g241
Ntp2882
Rp2883
(dp2884
g1249
g1062
sg1250
g1286
sg269
g1063
sbsS'IwGeomSVec2.h'
p2885
g239
(g1245
g241
Ntp2886
Rp2887
(dp2888
g1249
g916
sg1250
g1267
sg269
g960
sbsVlibjpeg.mkf
p2889
g239
(g1245
g241
Ntp2890
Rp2891
(dp2892
g1249
g809
sg1250
g1340
sg269
g807
sbsS'IwGxDebug.h'
p2893
g239
(g1245
g241
Ntp2894
Rp2895
(dp2896
g1249
g1008
sg1250
g1388
sg269
g1023
sbsS'pthread_types.h'
p2897
g239
(g1245
g241
Ntp2898
Rp2899
(dp2900
g1249
g1257
sg1250
g1279
sg269
S'c:/marmalade/6.2/s3e/h/std/pthread_types.h'
p2901
sbsS'iomanip.h'
p2902
g239
(g1245
g241
Ntp2903
Rp2904
(dp2905
g1249
g1257
sg1250
g1258
sg269
S'c:/marmalade/6.2/s3e/h/std/c++/iomanip.h'
p2906
sbsS'IwKeymap.h'
p2907
g239
(g1245
g241
Ntp2908
Rp2909
(dp2910
g1249
g1062
sg1250
g1286
sg269
g1116
sbsS'IwDebug.h'
p2911
g239
(g1245
g241
Ntp2912
Rp2913
(dp2914
g1249
g1062
sg1250
g1286
sg269
g1092
sbsS'IwVariableBitField.h'
p2915
g239
(g1245
g241
Ntp2916
Rp2917
(dp2918
g1249
g1062
sg1250
g1286
sg269
g1124
sbsS'IwGeomMenu.h'
p2919
g239
(g1245
g241
Ntp2920
Rp2921
(dp2922
g1249
g916
sg1250
g1267
sg269
g914
sbsS'IwDivTable.h'
p2923
g239
(g1245
g241
Ntp2924
Rp2925
(dp2926
g1249
g1062
sg1250
g1286
sg269
g1130
sbsS'ctype.h'
p2927
g239
(g1245
g241
Ntp2928
Rp2929
(dp2930
g1249
g1257
sg1250
g1279
sg269
S'c:/marmalade/6.2/s3e/h/std/ctype.h'
p2931
sbsS'IwGeomMat.h'
p2932
g239
(g1245
g241
Ntp2933
Rp2934
(dp2935
g1249
g916
sg1250
g1267
sg269
g970
sbsS'IwResGroup.h'
p2936
g239
(g1245
g241
Ntp2937
Rp2938
(dp2939
g1249
g984
sg1250
g1507
sg269
g998
sbsS'signal_1.h'
p2940
g239
(g1245
g241
Ntp2941
Rp2942
(dp2943
g1249
g1257
sg1250
g1402
sg269
S'c:/marmalade/6.2/s3e/h/std/sys/signal.h'
p2944
sbsS'IwSoundData.cpp'
p2945
g239
(g1245
g241
Ntp2946
Rp2947
(dp2948
g1249
g1174
sg1250
g1307
sg269
g1183
sbsVjerror.h
p2949
g239
(g1245
g241
Ntp2950
Rp2951
(dp2952
g1249
g792
sg1250
g1340
sg269
g790
sbsS'shm.h'
p2953
g239
(g1245
g241
Ntp2954
Rp2955
(dp2956
g1249
g1257
sg1250
g1402
sg269
S'c:/marmalade/6.2/s3e/h/std/sys/shm.h'
p2957
sbsVjpegint.h
p2958
g239
(g1245
g241
Ntp2959
Rp2960
(dp2961
g1249
g792
sg1250
g1340
sg269
g812
sbsS'prctl.h'
p2962
g239
(g1245
g241
Ntp2963
Rp2964
(dp2965
g1249
g1257
sg1250
g1402
sg269
S'c:/marmalade/6.2/s3e/h/std/sys/prctl.h'
p2966
sbsS'un.h'
p2967
g239
(g1245
g241
Ntp2968
Rp2969
(dp2970
g1249
g1257
sg1250
g1402
sg269
S'c:/marmalade/6.2/s3e/h/std/sys/un.h'
p2971
sbsS'utility'
p2972
g239
(g1245
g241
Ntp2973
Rp2974
(dp2975
g1249
g1257
sg1250
g1258
sg269
S'c:/marmalade/6.2/s3e/h/std/c++/utility'
p2976
sbsS'IwGeomLegacy.h'
p2977
g239
(g1245
g241
Ntp2978
Rp2979
(dp2980
g1249
g916
sg1250
g1267
sg269
g929
sbsS'IwTPage.h'
p2981
g239
(g1245
g241
Ntp2982
Rp2983
(dp2984
g1249
g1008
sg1250
g1388
sg269
g1037
sbsS'IwResSerialise.h'
p2985
g239
(g1245
g241
Ntp2986
Rp2987
(dp2988
g1249
g984
sg1250
g1507
sg269
g982
sbsS's3eCrypto.h'
p2989
g239
(g1245
g241
Ntp2990
Rp2991
(dp2992
g1249
g1257
sg1250
g1273
sg269
S'c:/marmalade/6.2/s3e/h/s3eCrypto.h'
p2993
sbsS's3eKeyboard.h'
p2994
g239
(g1245
g241
Ntp2995
Rp2996
(dp2997
g1249
g1257
sg1250
g1273
sg269
S'c:/marmalade/6.2/s3e/h/s3eKeyboard.h'
p2998
sbsS'fcntl.h'
p2999
g239
(g1245
g241
Ntp3000
Rp3001
(dp3002
g1249
g1257
sg1250
g1279
sg269
S'c:/marmalade/6.2/s3e/h/std/fcntl.h'
p3003
sbsS'memory.h'
p3004
g239
(g1245
g241
Ntp3005
Rp3006
(dp3007
g1249
g1257
sg1250
g1279
sg269
S'c:/marmalade/6.2/s3e/h/std/memory.h'
p3008
sbsS'pthread.h'
p3009
g239
(g1245
g241
Ntp3010
Rp3011
(dp3012
g1249
g1257
sg1250
g1279
sg269
S'c:/marmalade/6.2/s3e/h/std/pthread.h'
p3013
sbsS'IwGeomIntersect.h'
p3014
g239
(g1245
g241
Ntp3015
Rp3016
(dp3017
g1249
g916
sg1250
g1267
sg269
g925
sbsS'IwTextParserITX.h'
p3018
g239
(g1245
g241
Ntp3019
Rp3020
(dp3021
g1249
g1062
sg1250
g1286
sg269
g1132
sbsS'egl_1.h'
p3022
g239
(g1245
g241
Ntp3023
Rp3024
(dp3025
g1249
g1257
sg1250
g1825
sg269
S'c:/marmalade/6.2/s3e/h/GLES/egl.h'
p3026
sbsS'ostream.h'
p3027
g239
(g1245
g241
Ntp3028
Rp3029
(dp3030
g1249
g1257
sg1250
g1258
sg269
S'c:/marmalade/6.2/s3e/h/std/c++/ostream.h'
p3031
sbsS'stl_user_config.h'
p3032
g239
(g1245
g241
Ntp3033
Rp3034
(dp3035
g1249
g1257
sg1250
g1258
sg269
S'c:/marmalade/6.2/s3e/h/std/c++/stl_user_config.h'
p3036
sbsS'IwProfileMenu.h'
p3037
g239
(g1245
g241
Ntp3038
Rp3039
(dp3040
g1249
g1062
sg1250
g1286
sg269
g1114
sbsS'MarmaladeVersion.h'
p3041
g239
(g1245
g241
Ntp3042
Rp3043
(dp3044
g1249
g1257
sg1250
g1273
sg269
S'c:/marmalade/6.2/s3e/h/MarmaladeVersion.h'
p3045
sbsS'IwResHandlerWAV.h'
p3046
g239
(g1245
g241
Ntp3047
Rp3048
(dp3049
g1249
g1174
sg1250
g1307
sg269
g1197
sbsS'Tank.h'
p3050
g239
(g1245
g241
Ntp3051
Rp3052
(dp3053
g1249
g777
sg1250
g1379
sg269
g858
sbsS'IwImageHelper.h'
p3054
g239
(g1245
g241
Ntp3055
Rp3056
(dp3057
g1249
g1062
sg1250
g1286
sg269
g1140
sbsS'sprites.cpp'
p3058
g239
(g1245
g241
Ntp3059
Rp3060
(dp3061
g1249
g777
sg1250
g1379
sg269
g1224
sbsS'hash_set'
p3062
g239
(g1245
g241
Ntp3063
Rp3064
(dp3065
g1249
g1257
sg1250
g1258
sg269
S'c:/marmalade/6.2/s3e/h/std/c++/hash_set'
p3066
sbsS'IwGeomFQuat.h'
p3067
g239
(g1245
g241
Ntp3068
Rp3069
(dp3070
g1249
g916
sg1250
g1267
sg269
g972
sbsVjmorecfg.h
p3071
g239
(g1245
g241
Ntp3072
Rp3073
(dp3074
g1249
g792
sg1250
g1340
sg269
g793
sbsS'eglplatform.h'
p3075
g239
(g1245
g241
Ntp3076
Rp3077
(dp3078
g1249
g1257
sg1250
g1586
sg269
S'c:/marmalade/6.2/s3e/h/EGL/eglplatform.h'
p3079
sbsS'cmath'
p3080
g239
(g1245
g241
Ntp3081
Rp3082
(dp3083
g1249
g1257
sg1250
g1258
sg269
S'c:/marmalade/6.2/s3e/h/std/c++/cmath'
p3084
sbsS'math_gcc.h'
p3085
g239
(g1245
g241
Ntp3086
Rp3087
(dp3088
g1249
g1257
sg1250
g1279
sg269
S'c:/marmalade/6.2/s3e/h/std/math_gcc.h'
p3089
sbsS's3eMemory.h'
p3090
g239
(g1245
g241
Ntp3091
Rp3092
(dp3093
g1249
g1257
sg1250
g1273
sg269
S'c:/marmalade/6.2/s3e/h/s3eMemory.h'
p3094
sbsS'strings.h'
p3095
g239
(g1245
g241
Ntp3096
Rp3097
(dp3098
g1249
g1257
sg1250
g1279
sg269
S'c:/marmalade/6.2/s3e/h/std/strings.h'
p3099
sbsS's3eFile.h'
p3100
g239
(g1245
g241
Ntp3101
Rp3102
(dp3103
g1249
g1257
sg1250
g1273
sg269
S'c:/marmalade/6.2/s3e/h/s3eFile.h'
p3104
sbsS'IwGxTypes.h'
p3105
g239
(g1245
g241
Ntp3106
Rp3107
(dp3108
g1249
g1008
sg1250
g1388
sg269
g1011
sbsS'cerrno'
p3109
g239
(g1245
g241
Ntp3110
Rp3111
(dp3112
g1249
g1257
sg1250
g1258
sg269
S'c:/marmalade/6.2/s3e/h/std/c++/cerrno'
p3113
sbsS'IwSoundManager.cpp'
p3114
g239
(g1245
g241
Ntp3115
Rp3116
(dp3117
g1249
g1174
sg1250
g1307
sg269
g1172
sbsS'main.h'
p3118
g239
(g1245
g241
Ntp3119
Rp3120
(dp3121
g1249
g777
sg1250
g1379
sg269
g856
sbsS'soundengine.mkf'
p3122
g239
(g1245
g241
Ntp3123
Rp3124
(dp3125
g1249
g1213
sg1250
g1307
sg269
g1211
sbsS'resource.h'
p3126
g239
(g1245
g241
Ntp3127
Rp3128
(dp3129
g1249
g1257
sg1250
g1402
sg269
S'c:/marmalade/6.2/s3e/h/std/sys/resource.h'
p3130
sbsS'clocale'
p3131
g239
(g1245
g241
Ntp3132
Rp3133
(dp3134
g1249
g1257
sg1250
g1258
sg269
S'c:/marmalade/6.2/s3e/h/std/c++/clocale'
p3135
sbsS'csetjmp'
p3136
g239
(g1245
g241
Ntp3137
Rp3138
(dp3139
g1249
g1257
sg1250
g1258
sg269
S'c:/marmalade/6.2/s3e/h/std/c++/csetjmp'
p3140
sbsS'netdb.h'
p3141
g239
(g1245
g241
Ntp3142
Rp3143
(dp3144
g1249
g1257
sg1250
g1279
sg269
S'c:/marmalade/6.2/s3e/h/std/netdb.h'
p3145
sbsS's3eAndroidJNI.h'
p3146
g239
(g1245
g241
Ntp3147
Rp3148
(dp3149
g1249
g1257
sg1250
g1471
sg269
S'c:/marmalade/6.2/s3e/h/ext/s3eAndroidJNI.h'
p3150
sbsS'stdexcept'
p3151
g239
(g1245
g241
Ntp3152
Rp3153
(dp3154
g1249
g1257
sg1250
g1258
sg269
S'c:/marmalade/6.2/s3e/h/std/c++/stdexcept'
p3155
sbsS'math.h'
p3156
g239
(g1245
g241
Ntp3157
Rp3158
(dp3159
g1249
g1257
sg1250
g1279
sg269
S'c:/marmalade/6.2/s3e/h/std/math.h'
p3160
sbsS'stdbool.h'
p3161
g239
(g1245
g241
Ntp3162
Rp3163
(dp3164
g1249
g1257
sg1250
g1279
sg269
S'c:/marmalade/6.2/s3e/h/std/stdbool.h'
p3165
sbsS'uio.h'
p3166
g239
(g1245
g241
Ntp3167
Rp3168
(dp3169
g1249
g1257
sg1250
g1402
sg269
S'c:/marmalade/6.2/s3e/h/std/sys/uio.h'
p3170
sbsS'IwUncopyable.h'
p3171
g239
(g1245
g241
Ntp3172
Rp3173
(dp3174
g1249
g1062
sg1250
g1286
sg269
g1090
sbsS'Bacon.cpp'
p3175
g239
(g1245
g241
Ntp3176
Rp3177
(dp3178
g1249
g777
sg1250
g1379
sg269
g1164
sbssS'tests'
p3179
(lp3180
sS'project_name'
p3181
g247
sS'root_file'
p3182
g105
sS'current_root'
p3183
S'c:/Users/ironwk/Documents/blackberry/juego/agentBaconLalo - V1.3(ariel)'
p3184
sS'dependencies'
p3185
(lp3186
sS'include_paths'
p3187
(lp3188
Vc:/users/ironwk/appdata/roaming/marmalade/packages/6.2.0/libjpeg_6b/h
p3189
aVc:/users/ironwk/appdata/roaming/marmalade/packages/6.2.0/zlib_1.2.4/h
p3190
aVc:/users/ironwk/appdata/roaming/marmalade/packages/6.2.0/libpng_1.2.34/h
p3191
aS'c:/marmalade/6.2/modules/iwutil/h'
p3192
aS'c:/marmalade/6.2/modules/iwgeom/h'
p3193
aS'c:/marmalade/6.2/modules/iwresmanager/h'
p3194
aS'c:/marmalade/6.2/modules/iwgl/h'
p3195
aS'c:/marmalade/6.2/modules/iwgx/h'
p3196
aVc:/users/ironwk/appdata/roaming/marmalade/packages/6.2.0/tiniconv_1.0.1/h
p3197
aS'c:/marmalade/6.2/modules/iwgxfont/h'
p3198
aS'c:/marmalade/6.2/modules/iw2d/h'
p3199
aS'c:/users/ironwk/documents/blackberry/juego/agentbaconlalo - v1.3(ariel)/soundengine/h'
p3200
aS'c:/users/ironwk/documents/blackberry/juego/agentbaconlalo - v1.3(ariel)/soundengine/source'
p3201
aS'c:/marmalade/6.2/s3e/h'
p3202
aS'c:/marmalade/6.2/s3e/h/ext'
p3203
aS'c:/marmalade/6.2/s3e/h/std'
p3204
aS'c:/marmalade/6.2/s3e/h/std/c++'
p3205
aS'c:/marmalade/6.2/s3e/h/ext_legacy'
p3206
aS'c:/marmalade/6.2/s3e/h/legacy'
p3207
asS'weak_frameworks'
p3208
(lp3209
sS'extprojects'
p3210
(dp3211
sg485
(dp3212
g479
(lp3213
(S'c:/Users/ironwk/Documents/blackberry/juego/agentBaconLalo - V1.3(ariel)/data/textures/kevinBacon.png'
p3214
S'textures/kevinBacon.png'
p3215
I0
tp3216
a(S'c:/Users/ironwk/Documents/blackberry/juego/agentBaconLalo - V1.3(ariel)/data/music.wav'
p3217
S'music.wav'
p3218
I0
tp3219
a(S'c:/Users/ironwk/Documents/blackberry/juego/agentBaconLalo - V1.3(ariel)/data/crash.wav'
p3220
S'crash.wav'
p3221
I0
tp3222
a(S'c:/Users/ironwk/Documents/blackberry/juego/agentBaconLalo - V1.3(ariel)/data/life.wav'
p3223
S'life.wav'
p3224
I0
tp3225
a(S'c:/Users/ironwk/Documents/blackberry/juego/agentBaconLalo - V1.3(ariel)/data/maxiCoin.wav'
p3226
S'maxiCoin.wav'
p3227
I0
tp3228
a(S'c:/Users/ironwk/Documents/blackberry/juego/agentBaconLalo - V1.3(ariel)/data/textures/fondo.jpg'
p3229
S'textures/fondo.jpg'
p3230
I0
tp3231
a(S'c:/Users/ironwk/Documents/blackberry/juego/agentBaconLalo - V1.3(ariel)/data/textures/menu.jpg'
p3232
S'textures/menu.jpg'
p3233
I0
tp3234
a(S'c:/Users/ironwk/Documents/blackberry/juego/agentBaconLalo - V1.3(ariel)/data/textures/lifeStatus.png'
p3235
S'textures/lifeStatus.png'
p3236
I0
tp3237
a(S'c:/Users/ironwk/Documents/blackberry/juego/agentBaconLalo - V1.3(ariel)/data/textures/claw.png'
p3238
S'textures/claw.png'
p3239
I0
tp3240
a(S'c:/Users/ironwk/Documents/blackberry/juego/agentBaconLalo - V1.3(ariel)/data/textures/tnt.png'
p3241
S'textures/tnt.png'
p3242
I0
tp3243
a(S'c:/Users/ironwk/Documents/blackberry/juego/agentBaconLalo - V1.3(ariel)/data/textures/tank.png'
p3244
S'textures/tank.png'
p3245
I0
tp3246
a(S'c:/Users/ironwk/Documents/blackberry/juego/agentBaconLalo - V1.3(ariel)/data/textures/chuletas.png'
p3247
S'textures/chuletas.png'
p3248
I0
tp3249
a(S'c:/Users/ironwk/Documents/blackberry/juego/agentBaconLalo - V1.3(ariel)/data/textures/corazones.png'
p3250
S'textures/corazones.png'
p3251
I0
tp3252
a(S'c:/Users/ironwk/Documents/blackberry/juego/agentBaconLalo - V1.3(ariel)/data/textures/musicOn.jpg'
p3253
S'textures/musicOn.jpg'
p3254
I0
tp3255
a(S'c:/Users/ironwk/Documents/blackberry/juego/agentBaconLalo - V1.3(ariel)/data/textures/musicOf.jpg'
p3256
S'textures/musicOf.jpg'
p3257
I0
tp3258
a(S'c:/Users/ironwk/Documents/blackberry/juego/agentBaconLalo - V1.3(ariel)/data/textures/monedas.png'
p3259
S'textures/monedas.png'
p3260
I0
tp3261
a(S'c:/Users/ironwk/Documents/blackberry/juego/agentBaconLalo - V1.3(ariel)/data/textures/monedas200pts.png'
p3262
S'textures/monedas200pts.png'
p3263
I0
tp3264
a(S'c:/Users/ironwk/Documents/blackberry/juego/agentBaconLalo - V1.3(ariel)/data/textures/loading.jpg'
p3265
S'textures/loading.jpg'
p3266
I0
tp3267
a(S'c:/Users/ironwk/Documents/blackberry/juego/agentBaconLalo - V1.3(ariel)/data/textures/gameover.jpg'
p3268
S'textures/gameover.jpg'
p3269
I0
tp3270
a(S'c:/Users/ironwk/Documents/blackberry/juego/agentBaconLalo - V1.3(ariel)/data/textures/final.jpg'
p3271
S'textures/final.jpg'
p3272
I0
tp3273
a(S'c:/Users/ironwk/Documents/blackberry/juego/agentBaconLalo - V1.3(ariel)/data/iwgxfontbasic.group.bin'
p3274
S'iwgxfontbasic.group.bin'
p3275
I0
tp3276
a(S'c:/Users/ironwk/Documents/blackberry/juego/agentBaconLalo - V1.3(ariel)/data/splashscreen.jpg'
p3277
S'splashscreen.jpg'
p3278
I0
tp3279
a(S'c:/Users/ironwk/Documents/blackberry/juego/agentBaconLalo - V1.3(ariel)/data/Level1.group.bin'
p3280
S'Level1.group.bin'
p3281
I0
tp3282
assS'macro_types'
p3283
(dp3284
g428
I1
sg429
I0
sg430
I0
sg431
I0
sg432
I0
sg433
I0
sg434
I0
sg436
I0
sg437
I0
sg438
I0
sg439
I0
sg441
I0
sg443
I0
sg444
I0
sg445
I0
sg446
I0
sg447
I0
sg448
I1
sg449
I0
sg450
I0
sg451
I0
sg452
I01
sg453
I1
sg454
I0
sg455
I0
sg456
I0
ssS'commands'
p3285
(lp3286
sg487
(g768
S'VC10'
p3287
S'X86ARM'
p3288
tp3289
sS'subprojectOptions'
p3290
(dp3291
g491
(lp3292
sg493
Nsg494
Nsg495
Nsg496
Nsg497
Nsg498
Nsg499
Nsg500
(lp3293
sg722
Nsg502
Nsg504
Nsg638
Nsg506
Nsg507
Nsg508
Nsg509
Nsg510
Nsg511
Nsg512
Nsg513
Nsg705
(lp3294
sg514
Nsg515
(lp3295
sg723
Nsg518
Nsg519
Nsg724
Nsg719
Nsg521
Nsg525
Nsg526
Nsg527
Nsg632
Nsg528
Nsg529
Nsg727
Nsg531
Nsg532
Nsg718
Nsg533
Nsg534
Nsg535
Nsg536
Nsg537
Nsg538
Nsg539
Nsg540
Nsg590
Nsg542
Nsg545
Nsg546
Nsg548
Nsg550
Nsg552
Nsg553
Nsg555
Nsg556
Nsg557
Nsg558
Nsg708
Nsg559
Nsg561
Nsg562
Nsg563
Nsg564
Nsg565
Nsg566
Nsg594
Nsg568
(lp3296
sg570
Nsg571
Nsg572
Nsg573
Nsg574
Nsg575
Nsg576
Nsg577
Nsg649
Nsg579
Nsg580
Nsg581
Nsg582
(lp3297
sg584
Nsg586
Nsg587
Nsg588
Nsg589
Nsg541
Nsg591
Nsg592
Nsg599
(lp3298
sg567
Nsg596
Nsg597
Nsg598
Nsg593
Nsg601
Nsg742
Nsg603
Nsg604
Nsg605
Nsg606
Nsg607
Nsg608
Nsg609
Nsg610
Nsg653
Nsg612
Nsg613
Nsg614
(lp3299
sg616
Nsg617
Nsg743
Nsg619
Nsg620
Nsg621
Nsg622
Nsg623
Nsg625
Nsg626
Nsg654
Nsg629
Nsg630
Nsg631
Nsg522
Nsg633
(lp3300
sg635
Nsg636
Nsg637
Nsg765
Nsg505
Nsg639
Nsg640
Nsg642
Nsg643
(lp3301
sg503
Nsg645
Nsg646
Nsg647
Nsg648
Nsg578
Nsg651
Nsg652
Nsg611
Nsg628
Nsg655
Nsg656
Nsg657
Nsg658
Nsg659
Nsg660
Nsg661
Nsg662
Nsg663
Nsg751
Nsg666
Nsg667
Nsg668
Nsg549
Nsg670
(lp3302
sg672
Nsg673
Nsg674
Nsg675
Nsg676
Nsg677
Nsg678
(lp3303
sg680
(lp3304
sg682
Nsg683
Nsg684
Nsg685
Nsg686
Nsg687
Nsg689
Nsg690
Nsg691
Nsg755
Nsg693
Nsg694
Nsg695
Nsg696
Nsg697
Nsg698
Nsg699
Nsg700
Nsg701
Nsg709
Nsg703
Nsg749
Nsg704
Nsg523
Nsg707
Nsg554
Nsg702
Nsg760
Nsg711
Nsg712
Nsg713
Nsg748
Nsg714
Nsg715
Nsg716
Nsg717
Nsg547
Nsg530
Nsg720
Nsg721
Nsg669
Nsg517
Nsg520
Nsg725
Nsg726
Nsg650
Nsg728
Nsg729
Nsg730
Nsg731
Nsg732
Nsg734
Nsg735
Nsg736
Nsg737
Nsg738
(lp3305
sg740
Nsg741
Nsg602
Nsg618
Nsg744
Nsg745
Nsg746
Nsg747
Nsg560
Nsg551
Nsg750
Nsg664
Nsg752
Nsg753
Nsg754
Nsg692
Nsg756
Nsg757
Nsg759
Nsg710
Nsg761
Nsg762
Nsg763
Nsg764
Nsg544
Nsg766
NssS'build_libs'
p3306
(dp3307
sS'frameworks'
p3308
(lp3309
sS'environ'
p3310
(dp3311
sS'target_name_debug'
p3312
g247
sS'builders'
p3313
(dp3314
S'.S'
p3315
(dp3316
S'rvct'
p3317
(lp3318
S'.obj'
p3319
aS'echo ARM Assembling(RVCT) ${SOURCE}...'
p3320
aS'c:/marmalade/6.2/s3e\\rvct\\bin\\armasm -o ${TARGET} ${SOURCE}'
p3321
asg348
(lp3322
g3319
aS'echo ARM Assembling(GCC) ${SOURCE}...'
p3323
aS'c:/marmalade/6.2/s3e\\gcc\\bin\\arm-none-eabi-gcc -c -o ${TARGET} ${SOURCE}'
p3324
asS'ppu'
p3325
(lp3326
S'.a'
p3327
aS'echo PPU Assembling(SNC) ${SOURCE}...'
p3328
aS'c:/marmalade/6.2/s3e\\rvct\\bin\\armasm -o ${TARGET} ${SOURCE}'
p3329
assS'.s'
p3330
g3316
sS'.vp'
p3331
(lp3332
NaS'"C:/Marmalade/6.2/s3e/python/python.exe" "c:/marmalade/6.2/modules/iwgx/tools/compile_shaders.py" ${SOURCE}'
p3333
assg489
g0
sbtp3334
.