	.arch armv5te
	.eabi_attribute 27, 3
	.fpu vfp
	.eabi_attribute 20, 1
	.eabi_attribute 21, 1
	.eabi_attribute 23, 3
	.eabi_attribute 24, 1
	.eabi_attribute 25, 1
	.eabi_attribute 26, 2
	.eabi_attribute 30, 2
	.eabi_attribute 18, 2
	.file	"IwSoundGroup.cpp"
	.section	.text._ZN10CIwManaged9ParseOpenEP16CIwTextParserITX,"axG",%progbits,_ZN10CIwManaged9ParseOpenEP16CIwTextParserITX,comdat
	.align	2
	.weak	_ZN10CIwManaged9ParseOpenEP16CIwTextParserITX
	.hidden	_ZN10CIwManaged9ParseOpenEP16CIwTextParserITX
	.type	_ZN10CIwManaged9ParseOpenEP16CIwTextParserITX, %function
_ZN10CIwManaged9ParseOpenEP16CIwTextParserITX:
	@ args = 0, pretend = 0, frame = 0
	@ frame_needed = 0, uses_anonymous_args = 0
	@ link register save eliminated.
	bx	lr
	.size	_ZN10CIwManaged9ParseOpenEP16CIwTextParserITX, .-_ZN10CIwManaged9ParseOpenEP16CIwTextParserITX
	.section	.text._ZN10CIwManaged11HandleEventEP8CIwEvent,"axG",%progbits,_ZN10CIwManaged11HandleEventEP8CIwEvent,comdat
	.align	2
	.weak	_ZN10CIwManaged11HandleEventEP8CIwEvent
	.hidden	_ZN10CIwManaged11HandleEventEP8CIwEvent
	.type	_ZN10CIwManaged11HandleEventEP8CIwEvent, %function
_ZN10CIwManaged11HandleEventEP8CIwEvent:
	@ args = 0, pretend = 0, frame = 0
	@ frame_needed = 0, uses_anonymous_args = 0
	@ link register save eliminated.
	mov	r0, #0
	bx	lr
	.size	_ZN10CIwManaged11HandleEventEP8CIwEvent, .-_ZN10CIwManaged11HandleEventEP8CIwEvent
	.section	.text._ZN10CIwManaged11DebugRenderEv,"axG",%progbits,_ZN10CIwManaged11DebugRenderEv,comdat
	.align	2
	.weak	_ZN10CIwManaged11DebugRenderEv
	.hidden	_ZN10CIwManaged11DebugRenderEv
	.type	_ZN10CIwManaged11DebugRenderEv, %function
_ZN10CIwManaged11DebugRenderEv:
	@ args = 0, pretend = 0, frame = 0
	@ frame_needed = 0, uses_anonymous_args = 0
	@ link register save eliminated.
	bx	lr
	.size	_ZN10CIwManaged11DebugRenderEv, .-_ZN10CIwManaged11DebugRenderEv
	.section	.text._ZN11CIwResource10ApplyScaleEi,"axG",%progbits,_ZN11CIwResource10ApplyScaleEi,comdat
	.align	2
	.weak	_ZN11CIwResource10ApplyScaleEi
	.hidden	_ZN11CIwResource10ApplyScaleEi
	.type	_ZN11CIwResource10ApplyScaleEi, %function
_ZN11CIwResource10ApplyScaleEi:
	@ args = 0, pretend = 0, frame = 0
	@ frame_needed = 0, uses_anonymous_args = 0
	@ link register save eliminated.
	bx	lr
	.size	_ZN11CIwResource10ApplyScaleEi, .-_ZN11CIwResource10ApplyScaleEi
	.section	.text._ZN11CIwResource10ApplyScaleEf,"axG",%progbits,_ZN11CIwResource10ApplyScaleEf,comdat
	.align	2
	.weak	_ZN11CIwResource10ApplyScaleEf
	.hidden	_ZN11CIwResource10ApplyScaleEf
	.type	_ZN11CIwResource10ApplyScaleEf, %function
_ZN11CIwResource10ApplyScaleEf:
	@ args = 0, pretend = 0, frame = 0
	@ frame_needed = 0, uses_anonymous_args = 0
	@ link register save eliminated.
	bx	lr
	.size	_ZN11CIwResource10ApplyScaleEf, .-_ZN11CIwResource10ApplyScaleEf
	.section	.text._Z21_GetCIwSoundGroupSizev,"ax",%progbits
	.align	2
	.global	_Z21_GetCIwSoundGroupSizev
	.hidden	_Z21_GetCIwSoundGroupSizev
	.type	_Z21_GetCIwSoundGroupSizev, %function
_Z21_GetCIwSoundGroupSizev:
	@ args = 0, pretend = 0, frame = 0
	@ frame_needed = 0, uses_anonymous_args = 0
	@ link register save eliminated.
	mov	r0, #32
	bx	lr
	.size	_Z21_GetCIwSoundGroupSizev, .-_Z21_GetCIwSoundGroupSizev
	.section	.text._ZNK13CIwSoundGroup12GetClassNameEv,"ax",%progbits
	.align	2
	.global	_ZNK13CIwSoundGroup12GetClassNameEv
	.hidden	_ZNK13CIwSoundGroup12GetClassNameEv
	.type	_ZNK13CIwSoundGroup12GetClassNameEv, %function
_ZNK13CIwSoundGroup12GetClassNameEv:
	@ args = 0, pretend = 0, frame = 0
	@ frame_needed = 0, uses_anonymous_args = 0
	@ link register save eliminated.
	ldr	r0, .L15
	bx	lr
.L16:
	.align	2
.L15:
	.word	.LC0
	.size	_ZNK13CIwSoundGroup12GetClassNameEv, .-_ZNK13CIwSoundGroup12GetClassNameEv
	.section	.text._ZN13CIwSoundGroup14ParseAttributeEP16CIwTextParserITXPKc,"ax",%progbits
	.align	2
	.global	_ZN13CIwSoundGroup14ParseAttributeEP16CIwTextParserITXPKc
	.hidden	_ZN13CIwSoundGroup14ParseAttributeEP16CIwTextParserITXPKc
	.type	_ZN13CIwSoundGroup14ParseAttributeEP16CIwTextParserITXPKc, %function
_ZN13CIwSoundGroup14ParseAttributeEP16CIwTextParserITXPKc:
	@ args = 0, pretend = 0, frame = 0
	@ frame_needed = 0, uses_anonymous_args = 0
	@ link register save eliminated.
	mov	r0, #0
	bx	lr
	.size	_ZN13CIwSoundGroup14ParseAttributeEP16CIwTextParserITXPKc, .-_ZN13CIwSoundGroup14ParseAttributeEP16CIwTextParserITXPKc
	.section	.text._ZN13CIwSoundGroup10ParseCloseEP16CIwTextParserITX,"ax",%progbits
	.align	2
	.global	_ZN13CIwSoundGroup10ParseCloseEP16CIwTextParserITX
	.hidden	_ZN13CIwSoundGroup10ParseCloseEP16CIwTextParserITX
	.type	_ZN13CIwSoundGroup10ParseCloseEP16CIwTextParserITX, %function
_ZN13CIwSoundGroup10ParseCloseEP16CIwTextParserITX:
	@ args = 0, pretend = 0, frame = 0
	@ frame_needed = 0, uses_anonymous_args = 0
	@ link register save eliminated.
	bx	lr
	.size	_ZN13CIwSoundGroup10ParseCloseEP16CIwTextParserITX, .-_ZN13CIwSoundGroup10ParseCloseEP16CIwTextParserITX
	.section	.text._ZN13CIwSoundGroupD0Ev,"axG",%progbits,_ZN13CIwSoundGroupD0Ev,comdat
	.align	2
	.weak	_ZN13CIwSoundGroupD0Ev
	.hidden	_ZN13CIwSoundGroupD0Ev
	.type	_ZN13CIwSoundGroupD0Ev, %function
_ZN13CIwSoundGroupD0Ev:
	@ args = 0, pretend = 0, frame = 0
	@ frame_needed = 0, uses_anonymous_args = 0
	ldr	r3, .L23
	stmfd	sp!, {r4, lr}
	mov	r4, r0
	str	r3, [r0, #0]
	bl	_ZN10CIwManagedD2Ev
	mov	r0, r4
	bl	_ZdlPv
	mov	r0, r4
	ldmfd	sp!, {r4, pc}
.L24:
	.align	2
.L23:
	.word	_ZTV18CIwManagedRefCount+8
	.size	_ZN13CIwSoundGroupD0Ev, .-_ZN13CIwSoundGroupD0Ev
	.section	.text._ZN13CIwSoundGroupD1Ev,"axG",%progbits,_ZN13CIwSoundGroupD1Ev,comdat
	.align	2
	.weak	_ZN13CIwSoundGroupD1Ev
	.hidden	_ZN13CIwSoundGroupD1Ev
	.type	_ZN13CIwSoundGroupD1Ev, %function
_ZN13CIwSoundGroupD1Ev:
	@ args = 0, pretend = 0, frame = 0
	@ frame_needed = 0, uses_anonymous_args = 0
	ldr	r3, .L27
	stmfd	sp!, {r4, lr}
	mov	r4, r0
	str	r3, [r0, #0]
	bl	_ZN10CIwManagedD2Ev
	mov	r0, r4
	ldmfd	sp!, {r4, pc}
.L28:
	.align	2
.L27:
	.word	_ZTV18CIwManagedRefCount+8
	.size	_ZN13CIwSoundGroupD1Ev, .-_ZN13CIwSoundGroupD1Ev
	.section	.text._ZN13CIwSoundGroup6ResumeEv,"ax",%progbits
	.align	2
	.global	_ZN13CIwSoundGroup6ResumeEv
	.hidden	_ZN13CIwSoundGroup6ResumeEv
	.type	_ZN13CIwSoundGroup6ResumeEv, %function
_ZN13CIwSoundGroup6ResumeEv:
	@ args = 0, pretend = 0, frame = 0
	@ frame_needed = 0, uses_anonymous_args = 0
	stmfd	sp!, {r4, r5, r6, lr}
	ldr	r6, .L37
	mov	r5, r0
	ldr	r2, [r6, #0]
	ldr	r1, [r2, #20]
	cmp	r1, #0
	ldmeqfd	sp!, {r4, r5, r6, pc}
	mov	r4, #0
.L33:
	ldr	r3, [r2, #12]
	ldr	r0, [r3, r4, asl #2]
	add	r4, r4, #1
	ldr	ip, [r0, #0]
	ldr	r3, [ip, #36]
	cmp	r5, r3
	beq	.L36
.L32:
	cmp	r4, r1
	bcc	.L33
	ldmfd	sp!, {r4, r5, r6, pc}
.L36:
	bl	_ZN12CIwSoundInst6ResumeEv
	ldr	r2, [r6, #0]
	ldr	r1, [r2, #20]
	b	.L32
.L38:
	.align	2
.L37:
	.word	g_IwSoundManager
	.size	_ZN13CIwSoundGroup6ResumeEv, .-_ZN13CIwSoundGroup6ResumeEv
	.section	.text._ZN13CIwSoundGroup5PauseEv,"ax",%progbits
	.align	2
	.global	_ZN13CIwSoundGroup5PauseEv
	.hidden	_ZN13CIwSoundGroup5PauseEv
	.type	_ZN13CIwSoundGroup5PauseEv, %function
_ZN13CIwSoundGroup5PauseEv:
	@ args = 0, pretend = 0, frame = 0
	@ frame_needed = 0, uses_anonymous_args = 0
	stmfd	sp!, {r4, r5, r6, lr}
	ldr	r6, .L46
	mov	r5, r0
	ldr	r2, [r6, #0]
	ldr	r1, [r2, #20]
	cmp	r1, #0
	ldmeqfd	sp!, {r4, r5, r6, pc}
	mov	r4, #0
.L43:
	ldr	r3, [r2, #12]
	ldr	r0, [r3, r4, asl #2]
	add	r4, r4, #1
	ldr	ip, [r0, #0]
	ldr	r3, [ip, #36]
	cmp	r5, r3
	beq	.L45
.L42:
	cmp	r4, r1
	bcc	.L43
	ldmfd	sp!, {r4, r5, r6, pc}
.L45:
	bl	_ZN12CIwSoundInst5PauseEv
	ldr	r2, [r6, #0]
	ldr	r1, [r2, #20]
	b	.L42
.L47:
	.align	2
.L46:
	.word	g_IwSoundManager
	.size	_ZN13CIwSoundGroup5PauseEv, .-_ZN13CIwSoundGroup5PauseEv
	.section	.text._ZN13CIwSoundGroup4StopEv,"ax",%progbits
	.align	2
	.global	_ZN13CIwSoundGroup4StopEv
	.hidden	_ZN13CIwSoundGroup4StopEv
	.type	_ZN13CIwSoundGroup4StopEv, %function
_ZN13CIwSoundGroup4StopEv:
	@ args = 0, pretend = 0, frame = 0
	@ frame_needed = 0, uses_anonymous_args = 0
	stmfd	sp!, {r4, r5, r6, lr}
	ldr	r5, .L57
	mov	r6, r0
	ldr	r3, [r5, #0]
	ldr	r1, [r3, #20]
	cmp	r1, #0
	ldmeqfd	sp!, {r4, r5, r6, pc}
	mov	r4, #0
	b	.L53
.L55:
	ldr	r3, [r5, #0]
	ldr	r1, [r3, #20]
.L51:
	add	r4, r4, #1
	cmp	r4, r1
	bcs	.L56
.L53:
	ldr	r2, [r3, #12]
	ldr	r0, [r2, r4, asl #2]
	ldr	r2, [r0, #0]
	cmp	r2, #0
	beq	.L51
	ldr	r3, [r2, #36]
	cmp	r6, r3
	bne	.L55
	bl	_ZN12CIwSoundInst4StopEv
	b	.L55
.L56:
	ldmfd	sp!, {r4, r5, r6, pc}
.L58:
	.align	2
.L57:
	.word	g_IwSoundManager
	.size	_ZN13CIwSoundGroup4StopEv, .-_ZN13CIwSoundGroup4StopEv
	.section	.text._ZN13CIwSoundGroup14KillOldestInstEb,"ax",%progbits
	.align	2
	.global	_ZN13CIwSoundGroup14KillOldestInstEb
	.hidden	_ZN13CIwSoundGroup14KillOldestInstEb
	.type	_ZN13CIwSoundGroup14KillOldestInstEb, %function
_ZN13CIwSoundGroup14KillOldestInstEb:
	@ args = 0, pretend = 0, frame = 0
	@ frame_needed = 0, uses_anonymous_args = 0
	ldr	ip, .L99
	stmfd	sp!, {r4, r5, r6, lr}
	ldr	r2, [ip, #0]
	mov	r4, r0
	ldr	r3, [r2, #20]
	subs	r3, r3, r1
	moveq	r0, r3
	beq	.L63
	sub	r5, r3, #1
	mov	r0, #0
	ands	r5, r5, #3
	ldr	ip, [r2, #12]
	mov	lr, r0
	mov	r2, r0
	beq	.L64
	ldr	r2, [ip, r0]
	ldr	r6, [r2, #0]
	ldr	r1, [r6, #36]
	cmp	r4, r1
	beq	.L85
.L67:
	mov	r1, #0
.L86:
	cmp	r5, #1
	mov	r2, #1
	mov	lr, r1
	beq	.L64
	cmp	r5, #2
	beq	.L82
	ldr	r5, [ip, #4]
	ldr	r6, [r5, #0]
	ldr	lr, [r6, #36]
	cmp	r4, lr
	beq	.L87
.L68:
	mov	lr, r1
.L88:
	add	r2, r2, #1
.L82:
	ldr	r5, [ip, r2, asl #2]
	ldr	r6, [r5, #0]
	ldr	r1, [r6, #36]
	cmp	r4, r1
	beq	.L89
.L70:
	mov	r1, lr
.L90:
	add	r2, r2, #1
	mov	lr, r1
.L64:
	ldr	r5, [ip, r2, asl #2]
	ldr	r6, [r5, #0]
	ldr	r1, [r6, #36]
	cmp	r4, r1
	beq	.L96
.L61:
	mov	r6, lr
.L62:
	add	r2, r2, #1
	cmp	r3, r2
	bls	.L63
	ldr	r1, [ip, r2, asl #2]
	ldr	r5, [r1, #0]
	ldr	lr, [r5, #36]
	cmp	r4, lr
	beq	.L97
.L73:
	mov	lr, r6
.L91:
	add	r1, r2, #1
	ldr	r1, [ip, r1, asl #2]
	ldr	r6, [r1, #0]
	ldr	r5, [r6, #36]
	cmp	r4, r5
	beq	.L92
.L74:
	mov	r5, lr
.L93:
	add	lr, r2, #2
	ldr	r6, [ip, lr, asl #2]
	ldr	r1, [r6, #0]
	ldr	lr, [r1, #36]
	cmp	r4, lr
	beq	.L94
.L75:
	mov	lr, r5
	add	r2, r2, #3
.L98:
	ldr	r5, [ip, r2, asl #2]
	ldr	r6, [r5, #0]
	ldr	r1, [r6, #36]
	cmp	r4, r1
	bne	.L61
	b	.L96
.L63:
	bl	_ZN12CIwSoundInst4StopEv
	ldrh	r2, [r4, #24]
	sub	r0, r2, #1
	strh	r0, [r4, #24]	@ movhi
	ldmfd	sp!, {r4, r5, r6, pc}
.L96:
	ldrh	r6, [r5, #14]
	cmp	r6, lr
	movhi	r0, r5
	bhi	.L62
	b	.L61
.L94:
	ldrh	lr, [r6, #14]
	cmp	lr, r5
	bls	.L75
	mov	r0, r6
	add	r2, r2, #3
	b	.L98
.L92:
	ldrh	r5, [r1, #14]
	cmp	r5, lr
	bls	.L74
	mov	r0, r1
	b	.L93
.L97:
	ldrh	lr, [r1, #14]
	cmp	lr, r6
	bls	.L73
	mov	r0, r1
	b	.L91
.L89:
	ldrh	r1, [r5, #14]
	cmp	r1, lr
	bls	.L70
	mov	r0, r5
	b	.L90
.L85:
	ldrh	r1, [r2, #14]
	cmp	r1, #0
	bls	.L67
	mov	r0, r2
	b	.L86
.L87:
	ldrh	lr, [r5, #14]
	cmp	lr, r1
	bls	.L68
	mov	r0, r5
	b	.L88
.L100:
	.align	2
.L99:
	.word	g_IwSoundManager
	.size	_ZN13CIwSoundGroup14KillOldestInstEb, .-_ZN13CIwSoundGroup14KillOldestInstEb
	.section	.text._ZN13CIwSoundGroup9SerialiseEv,"ax",%progbits
	.align	2
	.global	_ZN13CIwSoundGroup9SerialiseEv
	.hidden	_ZN13CIwSoundGroup9SerialiseEv
	.type	_ZN13CIwSoundGroup9SerialiseEv, %function
_ZN13CIwSoundGroup9SerialiseEv:
	@ args = 0, pretend = 0, frame = 0
	@ frame_needed = 0, uses_anonymous_args = 0
	stmfd	sp!, {r4, lr}
	mov	r4, r0
	bl	_ZN10CIwManaged9SerialiseEv
	add	r0, r4, #16
	mov	r1, #1
	mov	r2, #15
	mov	r3, #2
	bl	_Z16IwSerialiseInt16Rsiii
	add	r0, r4, #18
	mov	r1, #1
	mov	r2, #15
	mov	r3, #2
	bl	_Z16IwSerialiseInt16Rsiii
	add	r0, r4, #20
	mov	r1, #1
	mov	r2, #15
	mov	r3, #2
	bl	_Z16IwSerialiseInt16Rsiii
	add	r0, r4, #22
	mov	r1, #1
	mov	r2, #16
	mov	r3, #2
	bl	_Z17IwSerialiseUInt16Rtiii
	add	r0, r4, #26
	mov	r1, #1
	mov	r2, #16
	mov	r3, #2
	ldmfd	sp!, {r4, lr}
	b	_Z17IwSerialiseUInt16Rtiii
	.size	_ZN13CIwSoundGroup9SerialiseEv, .-_ZN13CIwSoundGroup9SerialiseEv
	.section	.text._ZN13CIwSoundGroupC1Ev,"ax",%progbits
	.align	2
	.global	_ZN13CIwSoundGroupC1Ev
	.hidden	_ZN13CIwSoundGroupC1Ev
	.type	_ZN13CIwSoundGroupC1Ev, %function
_ZN13CIwSoundGroupC1Ev:
	@ args = 0, pretend = 0, frame = 0
	@ frame_needed = 0, uses_anonymous_args = 0
	stmfd	sp!, {r4, lr}
	mov	r4, r0
	bl	_ZN10CIwManagedC2Ev
	mov	r3, #0
	mov	r0, #4096
	ldr	r1, .L107
	mov	r2, #4	@ movhi
	strh	r0, [r4, #20]	@ movhi
	strh	r0, [r4, #16]	@ movhi
	str	r1, [r4, #0]
	strh	r3, [r4, #26]	@ movhi
	strh	r3, [r4, #12]	@ movhi
	strh	r3, [r4, #14]	@ movhi
	strh	r3, [r4, #18]	@ movhi
	strh	r2, [r4, #22]	@ movhi
	strh	r3, [r4, #24]	@ movhi
	mov	r0, r4
	ldmfd	sp!, {r4, pc}
.L108:
	.align	2
.L107:
	.word	.LANCHOR0+8
	.size	_ZN13CIwSoundGroupC1Ev, .-_ZN13CIwSoundGroupC1Ev
	.section	.text._ZN13CIwSoundGroupC2Ev,"ax",%progbits
	.align	2
	.global	_ZN13CIwSoundGroupC2Ev
	.hidden	_ZN13CIwSoundGroupC2Ev
	.type	_ZN13CIwSoundGroupC2Ev, %function
_ZN13CIwSoundGroupC2Ev:
	@ args = 0, pretend = 0, frame = 0
	@ frame_needed = 0, uses_anonymous_args = 0
	stmfd	sp!, {r4, lr}
	mov	r4, r0
	bl	_ZN10CIwManagedC2Ev
	mov	r3, #0
	mov	r0, #4096
	ldr	r1, .L113
	mov	r2, #4	@ movhi
	strh	r0, [r4, #20]	@ movhi
	strh	r0, [r4, #16]	@ movhi
	str	r1, [r4, #0]
	strh	r3, [r4, #26]	@ movhi
	strh	r3, [r4, #12]	@ movhi
	strh	r3, [r4, #14]	@ movhi
	strh	r3, [r4, #18]	@ movhi
	strh	r2, [r4, #22]	@ movhi
	strh	r3, [r4, #24]	@ movhi
	mov	r0, r4
	ldmfd	sp!, {r4, pc}
.L114:
	.align	2
.L113:
	.word	.LANCHOR0+8
	.size	_ZN13CIwSoundGroupC2Ev, .-_ZN13CIwSoundGroupC2Ev
	.section	.text._Z21_CIwSoundGroupFactoryv,"ax",%progbits
	.align	2
	.global	_Z21_CIwSoundGroupFactoryv
	.hidden	_Z21_CIwSoundGroupFactoryv
	.type	_Z21_CIwSoundGroupFactoryv, %function
_Z21_CIwSoundGroupFactoryv:
	@ args = 0, pretend = 0, frame = 0
	@ frame_needed = 0, uses_anonymous_args = 0
	stmfd	sp!, {r4, lr}
	mov	r0, #32
	bl	_Znwj
	mov	r4, r0
	bl	_ZN10CIwManagedC2Ev
	mov	r3, #0
	mov	r0, #4096
	ldr	r1, .L119
	mov	r2, #4	@ movhi
	strh	r0, [r4, #20]	@ movhi
	strh	r0, [r4, #16]	@ movhi
	str	r1, [r4, #0]
	strh	r3, [r4, #26]	@ movhi
	strh	r3, [r4, #12]	@ movhi
	strh	r3, [r4, #14]	@ movhi
	strh	r3, [r4, #18]	@ movhi
	strh	r2, [r4, #22]	@ movhi
	strh	r3, [r4, #24]	@ movhi
	mov	r0, r4
	ldmfd	sp!, {r4, pc}
.L120:
	.align	2
.L119:
	.word	.LANCHOR0+8
	.size	_Z21_CIwSoundGroupFactoryv, .-_Z21_CIwSoundGroupFactoryv
	.hidden	_ZTV13CIwSoundGroup
	.global	_ZTV13CIwSoundGroup
	.hidden	_ZTS13CIwSoundGroup
	.global	_ZTS13CIwSoundGroup
	.hidden	_ZTI13CIwSoundGroup
	.global	_ZTI13CIwSoundGroup
	.section	.rodata
	.align	3
	.set	.LANCHOR0,. + 0
	.type	_ZTV13CIwSoundGroup, %object
	.size	_ZTV13CIwSoundGroup, 72
_ZTV13CIwSoundGroup:
	.word	0
	.word	_ZTI13CIwSoundGroup
	.word	_ZN13CIwSoundGroupD1Ev
	.word	_ZN13CIwSoundGroupD0Ev
	.word	_ZN10CIwManaged9ParseOpenEP16CIwTextParserITX
	.word	_ZN13CIwSoundGroup10ParseCloseEP16CIwTextParserITX
	.word	_ZN13CIwSoundGroup14ParseAttributeEP16CIwTextParserITXPKc
	.word	_ZN13CIwSoundGroup9SerialiseEv
	.word	_ZN10CIwManaged7ResolveEv
	.word	_ZN10CIwManaged15ParseCloseChildEP16CIwTextParserITXPS_
	.word	_ZN10CIwManaged11HandleEventEP8CIwEvent
	.word	_ZN10CIwManaged7SetNameEPKc
	.word	_ZNK13CIwSoundGroup12GetClassNameEv
	.word	_ZN10CIwManaged11DebugRenderEv
	.word	_ZN18CIwManagedRefCount17DebugAddMenuItemsEP7CIwMenu
	.word	_ZN18CIwManagedRefCount8_ReplaceEP10CIwManaged
	.word	_ZN11CIwResource10ApplyScaleEi
	.word	_ZN11CIwResource10ApplyScaleEf
	.type	_ZTS13CIwSoundGroup, %object
	.size	_ZTS13CIwSoundGroup, 16
_ZTS13CIwSoundGroup:
	.ascii	"13CIwSoundGroup\000"
	.type	_ZTI13CIwSoundGroup, %object
	.size	_ZTI13CIwSoundGroup, 12
_ZTI13CIwSoundGroup:
	.word	_ZTVN10__cxxabiv120__si_class_type_infoE+8
	.word	_ZTS13CIwSoundGroup
	.word	_ZTI11CIwResource
	.section	.rodata.str1.4,"aMS",%progbits,1
	.align	2
.LC0:
	.ascii	"CIwSoundGroup\000"
	.hidden	_ZTV13CIwSoundGroup
	.ident	"GCC: (Sourcery G++ Lite 2010q1-188) 4.4.1"
